--- !tapi-tbd-v3
archs:                 [ armv7, armv7s, arm64, arm64e ]
platform:              ios
flags:                 [ flat_namespace ]
install-name:          /System/Library/Frameworks/CHIP.framework/CHIP
current-version:       1
compatibility-version: 1
objc-constraint:       retain_release
exports:
  - archs:                [ armv7, armv7s, arm64, arm64e ]
    symbols:              [ _CHIPErrorDomain, _CHIPVersionNumber,
                            _CHIPVersionString, __Z10slabAssertPKci,
                            __Z11emberAfInitPN4chip9Messaging15ExchangeManagerE,
                            __Z11emberAfTickv, __Z12emberAfPrintiPKcz,
                            __Z13emAfCallInitsv, __Z13emberAfGetIntPKhtth,
                            __Z13printApsFrameP13EmberApsFrame,
                            __Z14copyListMemberPhS_bPtt, __Z14emAfInitEventsv,
                            __Z14emberAfGetDatePhttP11EmberAfDate,
                            __Z14emberAfPrintlniPKcz,
                            __Z14encodeApsFramePhtP13EmberApsFrame,
                            __Z14extractMessagePhtPS_,
                            __Z15chipSendUnicastPN4chip9Messaging15ExchangeContextEP13EmberApsFrametPhNS_8BitFlagsINS0_16SendMessageFlagsEtEE,
                            __Z15chipSendUnicastyP13EmberApsFrametPh,
                            __Z15emAfPrintStatusPKch,
                            __Z15emberAfCopyListtP24EmberAfAttributeMetadatabPhS1_i,
                            __Z15emberGetBindinghP22EmberBindingTableEntry,
                            __Z15emberSetBindinghP22EmberBindingTableEntry,
                            __Z15extractApsFramePhtP13EmberApsFrame,
                            __Z16doEncodeApsFrameRN4chip8Encoding12LittleEndian12BufferWriterEthhtthhb,
                            __Z16emAfMatchClusterP14EmberAfClusterP28EmberAfAttributeSearchRecord,
                            __Z16emberAfGetInt16uPKhtt,
                            __Z16emberAfGetInt24uPKhtt,
                            __Z16emberAfGetInt32uPKhtt,
                            __Z16emberAfGetInt64uPKhtt,
                            __Z16emberAfGetStringPhtt, __Z16emberAfStackDownv,
                            __Z17emAfReadAttributehtthtPhtS_,
                            __Z17emberAfCopyInt16uPhtt,
                            __Z17emberAfCopyInt24uPhtj,
                            __Z17emberAfCopyInt32uPhtj,
                            __Z17emberAfCopyStringPhPKhh,
                            __Z17emberAfFillBufferPhthhPKcz,
                            __Z17emberAfGetMfgCodeP24EmberAfAttributeMetadata,
                            __Z18LogStringAttributePKhtb,
                            __Z18emAfMatchAttributeP14EmberAfClusterP24EmberAfAttributeMetadataP28EmberAfAttributeSearchRecord,
                            __Z18emAfWriteAttributehtthtPhhbb,
                            __Z18emberAfFindClusterhth, __Z18emberAfGetDataSizeh,
                            __Z18emberAfPrintBufferiPKhtb,
                            __Z18emberAfPrintStringiPKh,
                            __Z18emberAfSendUnicastRKN4chip22MessageSendDestinationEP13EmberApsFrametPh,
                            __Z18emberDeleteBindingh,
                            __Z19EventControlHandlerPN4chip6System5LayerEPvi,
                            __Z19emberAfClusterCounthb,
                            __Z19emberAfClusterIndexhth,
                            __Z19emberAfIsTypeSignedh, __Z19emberAfNextSequencev,
                            __Z19emberAfSendInterPantPKhttttPh,
                            __Z19emberAfSendResponsev,
                            __Z19emberAfStringLengthPKh,
                            __Z20InitDataModelHandlerPN4chip9Messaging15ExchangeManagerE,
                            __Z20emberAfCompareValuesPhS_tb,
                            __Z20emberAfEndpointCountv,
                            __Z20emberAfGetDifferencePhjh,
                            __Z20emberAfGetLongStringPhtt,
                            __Z20emberAfGetNthClusterhhb,
                            __Z20emberAfPutDateInRespP11EmberAfDate,
                            __Z20emberAfReadAttributehtthPhtS_,
                            __Z20emberAfSendMulticasttP13EmberApsFrametPh,
                            __Z21emberAfContainsClientht,
                            __Z21emberAfContainsServerht,
                            __Z21emberAfCopyLongStringPhPKht,
                            __Z21emberAfGetEventStringh,
                            __Z21emberAfProcessMessageP13EmberApsFramehPhtPN4chip9Messaging15ExchangeContextEP21EmberAfInterpanHeader,
                            __Z21emberAfPutBlockInRespPKht,
                            __Z21emberAfPutInt8uInResph,
                            __Z21emberAfWriteAttributehtthPhh,
                            __Z22HandleDataModelMessagePN4chip9Messaging15ExchangeContextEONS_6System18PacketBufferHandleE,
                            __Z22emAfApplyRetryOverridePt,
                            __Z22emAfMessageSentHandlerRKN4chip22MessageSendDestinationEP13EmberApsFramehtPhh,
                            __Z22emberAfContainsClusterht,
                            __Z22emberAfIsDeviceEnabledh,
                            __Z22emberAfPutInt16sInResps,
                            __Z22emberAfPutInt16uInRespt,
                            __Z22emberAfPutInt24uInRespj,
                            __Z22emberAfPutInt32uInRespj,
                            __Z22emberAfPutStringInRespPKh,
                            __Z22emberAfResetAttributesh,
                            __Z23emberAfAppendCharactersPhhPKhh,
                            __Z23emberAfGetRetryOverridev,
                            __Z23emberAfLongStringLengthPKh,
                            __Z23emberAfPrintMessageDataPht,
                            __Z23emberAfSetDeviceEnabledhb,
                            __Z23emberAfSetRetryOverride20EmberAfRetryOverride,
                            __Z24emAfProcessGlobalCommandP21EmberAfClusterCommand,
                            __Z24emAfReadOrWriteAttributeP28EmberAfAttributeSearchRecordPP24EmberAfAttributeMetadataPhtbi,
                            __Z24emAfSaveAttributeToTokenPhhtP24EmberAfAttributeMetadata,
                            __Z24emAfValidateChannelPageshh,
                            __Z24emberAfClearResponseDatav,
                            __Z24emberAfEndpointConfigurev,
                            __Z24emberAfEndpointFromIndexh,
                            __Z24emberAfEndpointIsEnabledh,
                            __Z24emberAfExtractCommandIdsbP21EmberAfClusterCommandtPhtPthh,
                            __Z24emberAfFindClusterInTypeP19EmberAfEndpointTypeth,
                            __Z24emberAfGetClusterByIndexhh,
                            __Z24emberAfIndexFromEndpointh,
                            __Z24emberAfSetExternalBufferPhtPtP13EmberApsFrame,
                            __Z25IMDefaultResponseCallbackPKN4chip3app7CommandE13EmberAfStatus,
                            __Z25emAfLoadAttributeDefaultshb,
                            __Z25emberAfAttributeValueSizetthPKh,
                            __Z25emberAfFillExternalBufferhthPKcz,
                            __Z25emberAfFixedEndpointCountv,
                            __Z25emberAfGetCommandApsFramev,
                            __Z25emberAfScheduleClientTickhtj,
                            __Z25emberAfScheduleServerTickhtj,
                            __Z25emberAfSetDynamicEndpointhhP19EmberAfEndpointTypeth,
                            __Z26emberAfClusterInitCallbackht,
                            __Z26emberAfFindClusterFunctionP14EmberAfClusterh,
                            __Z26emberAfIsDeviceIdentifyingh,
                            __Z26emberAfPrintAttributeTablev,
                            __Z26emberAfReadClientAttributehttPht,
                            __Z26emberAfReadServerAttributehttPht,
                            __Z26emberAfScheduleClusterTickhtbj24EmberAfEventSleepControl,
                            __Z26emberAfSendDefaultResponsePK21EmberAfClusterCommand13EmberAfStatus,
                            __Z26emberAfSetCommandEndpointshh,
                            __Z26emberEventControlGetActiveP17EmberEventControl,
                            __Z26emberEventControlSetActiveP17EmberEventControl,
                            __Z27emAfPluginReportingAddEntryP27EmberAfPluginReportingEntry,
                            __Z27emAfPluginReportingGetEntryhP27EmberAfPluginReportingEntry,
                            __Z27emAfPluginReportingSetEntryhP27EmberAfPluginReportingEntry,
                            __Z27emberAfClearDynamicEndpointh,
                            __Z27emberAfDeactivateClientTickht,
                            __Z27emberAfDeactivateServerTickht,
                            __Z27emberAfFindClusterNameIndext,
                            __Z27emberAfInitializeAttributesh,
                            __Z27emberAfScheduleTickExtendedhtbj23EmberAfEventPollControl24EmberAfEventSleepControl,
                            __Z27emberAfVerifyAttributeWritehtthtPhh,
                            __Z27emberAfWriteClientAttributehttPhh,
                            __Z27emberAfWriteServerAttributehttPhh,
                            __Z27emberEventControlSetDelayMSP17EmberEventControlj,
                            __Z28emAfLoadAttributesFromTokensh,
                            __Z28emberAfDeactivateClusterTickhtb,
                            __Z28emberAfDecodeAndPrintClustert,
                            __Z28emberAfEndpointEnableDisablehb,
                            __Z28emberAfGetLastSequenceNumberv,
                            __Z28emberAfIsStringAttributeTypeh,
                            __Z28emberAfMake8bitEncodedChanPghh,
                            __Z28emberAfSendUnicastToBindingsP13EmberApsFrametPh,
                            __Z28emberEventControlSetInactiveP17EmberEventControl,
                            __Z29emberAfAttributeValueListSizettPKh,
                            __Z29emberAfEndpointIndexIsEnabledh,
                            __Z29emberAfEventControlSetDelayQSP17EmberEventControlj,
                            __Z29emberAfFindClusterWithMfgCodehtht,
                            __Z29emberAfGetDeviceIdForEndpointh,
                            __Z29emberAfWriteAttributeExternalhtthtPhh,
                            __Z30emAfPluginReportingRemoveEntryh,
                            __Z30emberAfDefaultResponseCallbackth13EmberAfStatus,
                            __Z30emberAfGetClustersFromEndpointhPthb,
                            __Z30emberAfIsThisDataTypeAListTypeh,
                            __Z30emberAfLocateAttributeMetadatahttht,
                            __Z30emberAfSendMulticastToBindingsP13EmberApsFrametPh,
                            __Z30emberAfSendUnicastWithCallbackRKN4chip22MessageSendDestinationEP13EmberApsFrametPhPFvS2_S4_tS5_hE,
                            __Z30emberAfSetDynamicEndpointCounth,
                            __Z31emAfApplyDisableDefaultResponsePh,
                            __Z31emberAfClearReportTableCallbackv,
                            __Z31emberAfProcessMessageIntoZclCmdP13EmberApsFramehPhtPN4chip9Messaging15ExchangeContextEP21EmberAfInterpanHeaderP21EmberAfClusterCommand,
                            __Z31emberAfReportAttributesCallbacktPht,
                            __Z31emberAfSendResponseWithCallbackPFvRKN4chip22MessageSendDestinationEP13EmberApsFrametPhhE,
                            __Z31emberAfSetNoReplyForNextMessageb,
                            __Z32emberAfContainsClientWithMfgCodehtt,
                            __Z32emberAfContainsServerWithMfgCodehtt,
                            __Z32emberAfGetDisableDefaultResponsev,
                            __Z32emberAfIsLongStringAttributeTypeh,
                            __Z32emberAfIsThisDataTypeAStringTypeh,
                            __Z32emberAfSendMulticastWithCallbacktP13EmberApsFrametPhPFvRKN4chip22MessageSendDestinationES0_tS1_hE,
                            __Z32emberAfSetDisableDefaultResponse29EmberAfDisableDefaultResponse,
                            __Z33emAfGetMSFromTimerDurationAndUnitth,
                            __Z33emAfGetManufacturerCodeForClusterP14EmberAfCluster,
                            __Z33emAfGetTimerDurationAndUnitFromMSjPtPh,
                            __Z33emAfPluginReportingDoEntriesMatchPK27EmberAfPluginReportingEntryS1_,
                            __Z33emAfProcessClusterSpecificCommandP21EmberAfClusterCommand,
                            __Z33emberAfClusterMessageSentCallbackRKN4chip22MessageSendDestinationEP13EmberApsFrametPhh,
                            __Z33emberAfContainsClusterWithMfgCodehtt,
                            __Z33emberAfGetClusterCountForEndpointh,
                            __Z33emberAfScheduleClientTickExtendedhtj23EmberAfEventPollControl24EmberAfEventSleepControl,
                            __Z33emberAfScheduleServerTickExtendedhtj23EmberAfEventPollControl24EmberAfEventSleepControl,
                            __Z34emberAfAppendAttributeReportFieldshtthPhhS_,
                            __Z34emberAfClusterSpecificCommandParseP21EmberAfClusterCommand,
                            __Z34emberAfEventControlSetDelayMinutesP17EmberEventControlt,
                            __Z34emberAfGetDynamicIndexFromEndpointh,
                            __Z34emberAfPluginReportingInitCallbackv,
                            __Z35emAfClusterAttributeChangedCallbackhttht,
                            __Z35emAfGetManufacturerCodeForAttributeP14EmberAfClusterP24EmberAfAttributeMetadata,
                            __Z35emberAfFindClusterInTypeWithMfgCodeP19EmberAfEndpointTypetht,
                            __Z35emberAfGetMfgCodeFromCurrentCommandv,
                            __Z35emberAfGetPageFrom8bitEncodedChanPgh,
                            __Z35emberAfSendCommandUnicastToBindingsv,
                            __Z35emberAfSendImmediateDefaultResponse13EmberAfStatus,
                            __Z36emberAfEndpointEventControlGetActiveP17EmberEventControlh,
                            __Z36emberAfEndpointEventControlSetActiveP17EmberEventControlh,
                            __Z36encodeBasicClusterDiscoverAttributeshh,
                            __Z36encodeOnOffClusterDiscoverAttributeshh,
                            __Z36encodeOnOffClusterReadOnOffAttributehh,
                            __Z37emberAfClusterDefaultResponseCallbackhth13EmberAfStatush,
                            __Z37emberAfFindClusterClientEndpointIndexht,
                            __Z37emberAfFindClusterServerEndpointIndexht,
                            __Z37emberAfReadAttributesResponseCallbacktPht,
                            __Z37emberAfSendCommandMulticastToBindingsv,
                            __Z37encodeGroupsClusterDiscoverAttributeshh,
                            __Z37encodeScenesClusterDiscoverAttributeshh,
                            __Z37encodeSwitchClusterDiscoverAttributeshh,
                            __Z38emAfClusterPreAttributeChangedCallbackhtththtPh,
                            __Z38emAfInitializeMessageSentCallbackArrayv,
                            __Z38emberAfEndpointEventControlSetInactiveP17EmberEventControlh,
                            __Z38emberAfFindClusterNameIndexWithMfgCodett,
                            __Z38emberAfGetChannelFrom8bitEncodedChanPgh,
                            __Z38emberAfGroupsClusterClientCommandParseP21EmberAfClusterCommand,
                            __Z38emberAfPluginReportingTickEventHandlerv,
                            __Z38emberAfScenesClusterClientCommandParseP21EmberAfClusterCommand,
                            __Z38emberAfSendDefaultResponseWithCallbackPK21EmberAfClusterCommand13EmberAfStatusPFvRKN4chip22MessageSendDestinationEP13EmberApsFrametPhhE,
                            __Z38emberAfWriteAttributesResponseCallbacktPht,
                            __Z38encodeBindingClusterDiscoverAttributeshh,
                            __Z39emberAfDecodeAndPrintClusterWithMfgCodett,
                            __Z39emberAfGetAttributeAnalogOrDiscreteTypeh,
                            __Z39emberAfReportingAttributeChangeCallbackhtththPh,
                            __Z39encodeBasicClusterReadLocationAttributehh,
                            __Z39encodeBasicClusterReadVendorIDAttributehh,
                            __Z39encodeDoorLockClusterDiscoverAttributeshh,
                            __Z39encodeIdentifyClusterDiscoverAttributeshh,
                            __Z39encodeLowPowerClusterDiscoverAttributeshh,
                            __Z40emberAfConfigureReportingCommandCallbackPK21EmberAfClusterCommand,
                            __Z40emberAfDoorLockClusterClientCommandParseP21EmberAfClusterCommand,
                            __Z40emberAfIdentifyClusterClientCommandParseP21EmberAfClusterCommand,
                            __Z40emberAfPluginReportingConfiguredCallbackPK27EmberAfPluginReportingEntry,
                            __Z40emberAfRetrieveAttributeAndCraftResponsehtthtt,
                            __Z40emberAfSendUnicastToBindingsWithCallbackP13EmberApsFrametPhPFvRKN4chip22MessageSendDestinationES0_tS1_hE,
                            __Z40encodeBasicClusterReadProductIDAttributehh,
                            __Z40encodeBasicClusterReadUserLabelAttributehh,
                            __Z40encodeBasicClusterWriteLocationAttributehhN4chip4SpanIhEE,
                            __Z40encodeTvChannelClusterDiscoverAttributeshh,
                            __Z40encodeWakeOnLanClusterDiscoverAttributeshh,
                            __Z41emberAfConfigureReportingResponseCallbacktPht,
                            __Z41emberAfDiscoverAttributesResponseCallbacktbPhtb,
                            __Z41emberAfPluginReportingStackStatusCallbackh,
                            __Z41emberAfSendMulticastWithAliasWithCallbacktP13EmberApsFrametPhthPFvRKN4chip22MessageSendDestinationES0_tS1_hE,
                            __Z41emberAfTvChannelClusterClientCommandParseP21EmberAfClusterCommand,
                            __Z41encodeBasicClusterReadPartNumberAttributehh,
                            __Z41encodeBasicClusterReadProductURLAttributehh,
                            __Z41encodeBasicClusterReadVendorNameAttributehh,
                            __Z41encodeBasicClusterWriteUserLabelAttributehhN4chip4SpanIhEE,
                            __Z41encodeDescriptorClusterDiscoverAttributeshh,
                            __Z41encodeFixedLabelClusterDiscoverAttributeshh,
                            __Z41encodeMediaInputClusterDiscoverAttributeshh,
                            __Z41encodeOnOffClusterConfigureOnOffAttributehhtt,
                            __Z41encodeThermostatClusterDiscoverAttributeshh,
                            __Z42encodeAudioOutputClusterDiscoverAttributeshh,
                            __Z42encodeBasicClusterReadProductNameAttributehh,
                            __Z42encodeDoorLockClusterReadLockTypeAttributehh,
                            __Z42encodeKeypadInputClusterDiscoverAttributeshh,
                            __Z42encodeScenesClusterReadSceneCountAttributehh,
                            __Z42encodeScenesClusterReadSceneValidAttributehh,
                            __Z42encodeTestClusterClusterDiscoverAttributeshh,
                            __Z42encodeTestClusterClusterReadEnum8Attributehh,
                            __Z42encodeTestClusterClusterReadInt8sAttributehh,
                            __Z42encodeTestClusterClusterReadInt8uAttributehh,
                            __Z43emberAfKeypadInputClusterClientCommandParseP21EmberAfClusterCommand,
                            __Z43emberAfTestClusterClusterClientCommandParseP21EmberAfClusterCommand,
                            __Z43encodeAccountLoginClusterDiscoverAttributeshh,
                            __Z43encodeBasicClusterReadProductLabelAttributehh,
                            __Z43encodeBasicClusterReadSerialNumberAttributehh,
                            __Z43encodeColorControlClusterDiscoverAttributeshh,
                            __Z43encodeDoorLockClusterReadLockStateAttributehh,
                            __Z43encodeGroupsClusterReadNameSupportAttributehh,
                            __Z43encodeLevelControlClusterDiscoverAttributeshh,
                            __Z43encodeScenesClusterReadNameSupportAttributehh,
                            __Z43encodeTestClusterClusterReadEnum16Attributehh,
                            __Z43encodeTestClusterClusterReadInt16sAttributehh,
                            __Z43encodeTestClusterClusterReadInt16uAttributehh,
                            __Z43encodeTestClusterClusterReadInt32sAttributehh,
                            __Z43encodeTestClusterClusterReadInt32uAttributehh,
                            __Z43encodeTestClusterClusterReadInt64sAttributehh,
                            __Z43encodeTestClusterClusterReadInt64uAttributehh,
                            __Z43encodeTestClusterClusterWriteEnum8Attributehhh,
                            __Z43encodeTestClusterClusterWriteInt8sAttributehha,
                            __Z43encodeTestClusterClusterWriteInt8uAttributehhh,
                            __Z44emberAfAccountLoginClusterClientCommandParseP21EmberAfClusterCommand,
                            __Z44emberAfClusterMessageSentWithMfgCodeCallbackRKN4chip22MessageSendDestinationEP13EmberApsFrametPhht,
                            __Z44emberAfDoorLockClusterGetPinResponseCallbackPN4chip3app7CommandEthhPh,
                            __Z44emberAfDoorLockClusterSetPinResponseCallbackPN4chip3app7CommandEh,
                            __Z44emberAfFindClusterIncludingDisabledEndpointshth,
                            __Z44emberAfGroupsClusterAddGroupResponseCallbackPN4chip3app7CommandEht,
                            __Z44emberAfReadSequentialAttributesAddToResponsehtththb,
                            __Z44emberAfScenesClusterAddSceneResponseCallbackPN4chip3app7CommandEhth,
                            __Z44encodeContentLaunchClusterDiscoverAttributeshh,
                            __Z44encodeMediaPlaybackClusterDiscoverAttributeshh,
                            __Z44encodeScenesClusterReadCurrentGroupAttributehh,
                            __Z44encodeScenesClusterReadCurrentSceneAttributehh,
                            __Z44encodeTestClusterClusterReadBitmap8Attributehh,
                            __Z44encodeTestClusterClusterReadBooleanAttributehh,
                            __Z44encodeTestClusterClusterWriteEnum16Attributehht,
                            __Z44encodeTestClusterClusterWriteInt16sAttributehhs,
                            __Z44encodeTestClusterClusterWriteInt16uAttributehht,
                            __Z44encodeTestClusterClusterWriteInt32sAttributehhi,
                            __Z44encodeTestClusterClusterWriteInt32uAttributehhj,
                            __Z44encodeTestClusterClusterWriteInt64sAttributehhx,
                            __Z44encodeTestClusterClusterWriteInt64uAttributehhy,
                            __Z44encodeWindowCoveringClusterReadModeAttributehh,
                            __Z45emberAfContentLaunchClusterClientCommandParseP21EmberAfClusterCommand,
                            __Z45emberAfDoorLockClusterGetRfidResponseCallbackPN4chip3app7CommandEthhPh,
                            __Z45emberAfDoorLockClusterSetRfidResponseCallbackPN4chip3app7CommandEh,
                            __Z45emberAfFillExternalManufacturerSpecificBufferhtthPKcz,
                            __Z45emberAfGroupsClusterViewGroupResponseCallbackPN4chip3app7CommandEhtPh,
                            __Z45emberAfMediaPlaybackClusterClientCommandParseP21EmberAfClusterCommand,
                            __Z45emberAfScenesClusterViewSceneResponseCallbackPN4chip3app7CommandEhthtPhS3_,
                            __Z45encodeBarrierControlClusterDiscoverAttributeshh,
                            __Z45encodeDescriptorClusterReadPartsListAttributehh,
                            __Z45encodeFixedLabelClusterReadLabelListAttributehh,
                            __Z45encodeTestClusterClusterReadBitmap16Attributehh,
                            __Z45encodeTestClusterClusterReadBitmap32Attributehh,
                            __Z45encodeTestClusterClusterReadBitmap64Attributehh,
                            __Z45encodeTestClusterClusterWriteBitmap8Attributehhh,
                            __Z45encodeTestClusterClusterWriteBooleanAttributehhh,
                            __Z45encodeWindowCoveringClusterDiscoverAttributeshh,
                            __Z45encodeWindowCoveringClusterWriteModeAttributehhh,
                            __Z46emberAfDoorLockClusterClearPinResponseCallbackPN4chip3app7CommandEh,
                            __Z46emberAfDoorLockClusterLockDoorResponseCallbackPN4chip3app7CommandEh,
                            __Z46emberAfReadManufacturerSpecificClientAttributehtttPht,
                            __Z46emberAfReadManufacturerSpecificServerAttributehtttPht,
                            __Z46emberAfScenesClusterStoreSceneResponseCallbackPN4chip3app7CommandEhth,
                            __Z46encodeBasicClusterReadClusterRevisionAttributehh,
                            __Z46encodeBasicClusterReadHardwareVersionAttributehh,
                            __Z46encodeBasicClusterReadSoftwareVersionAttributehh,
                            __Z46encodeColorControlClusterReadCurrentXAttributehh,
                            __Z46encodeColorControlClusterReadCurrentYAttributehh,
                            __Z46encodeDescriptorClusterReadClientListAttributehh,
                            __Z46encodeDescriptorClusterReadDeviceListAttributehh,
                            __Z46encodeDescriptorClusterReadServerListAttributehh,
                            __Z46encodeIdentifyClusterReadIdentifyTimeAttributehh,
                            __Z46encodeOnOffClusterReadClusterRevisionAttributehh,
                            __Z46encodeTargetNavigatorClusterDiscoverAttributeshh,
                            __Z46encodeTestClusterClusterReadListInt8uAttributehh,
                            __Z46encodeTestClusterClusterWriteBitmap16Attributehht,
                            __Z46encodeTestClusterClusterWriteBitmap32Attributehhj,
                            __Z46encodeTestClusterClusterWriteBitmap64Attributehhy,
                            __Z46encodeThermostatClusterReadSystemModeAttributehh,
                            __Z47emberAfDiscoverCommandsReceivedResponseCallbackttbPht,
                            __Z47emberAfDoorLockClusterClearRfidResponseCallbackPN4chip3app7CommandEh,
                            __Z47emberAfGroupsClusterRemoveGroupResponseCallbackPN4chip3app7CommandEht,
                            __Z47emberAfScenesClusterRemoveSceneResponseCallbackPN4chip3app7CommandEhth,
                            __Z47emberAfSendCommandUnicastToBindingsWithCallbackPFvRKN4chip22MessageSendDestinationEP13EmberApsFrametPhhE,
                            __Z47emberAfSendImmediateDefaultResponseWithCallback13EmberAfStatusPFvRKN4chip22MessageSendDestinationEP13EmberApsFrametPhhE,
                            __Z47emberAfTargetNavigatorClusterClientCommandParseP21EmberAfClusterCommand,
                            __Z47emberAfWriteManufacturerSpecificClientAttributehtttPhh,
                            __Z47emberAfWriteManufacturerSpecificServerAttributehtttPhh,
                            __Z47encodeApplicationBasicClusterDiscoverAttributeshh,
                            __Z47encodeBinaryInputBasicClusterDiscoverAttributeshh,
                            __Z47encodeColorControlClusterReadColorModeAttributehh,
                            __Z47encodeColorControlClusterReadPrimary1XAttributehh,
                            __Z47encodeColorControlClusterReadPrimary1YAttributehh,
                            __Z47encodeColorControlClusterReadPrimary2XAttributehh,
                            __Z47encodeColorControlClusterReadPrimary2YAttributehh,
                            __Z47encodeColorControlClusterReadPrimary3XAttributehh,
                            __Z47encodeColorControlClusterReadPrimary3YAttributehh,
                            __Z47encodeColorControlClusterReadPrimary4XAttributehh,
                            __Z47encodeColorControlClusterReadPrimary4YAttributehh,
                            __Z47encodeColorControlClusterReadPrimary5XAttributehh,
                            __Z47encodeColorControlClusterReadPrimary5YAttributehh,
                            __Z47encodeColorControlClusterReadPrimary6XAttributehh,
                            __Z47encodeColorControlClusterReadPrimary6YAttributehh,
                            __Z47encodeGroupsClusterReadClusterRevisionAttributehh,
                            __Z47encodeIdentifyClusterWriteIdentifyTimeAttributehht,
                            __Z47encodeScenesClusterReadClusterRevisionAttributehh,
                            __Z47encodeSwitchClusterReadClusterRevisionAttributehh,
                            __Z47encodeSwitchClusterReadCurrentPositionAttributehh,
                            __Z47encodeThermostatClusterWriteSystemModeAttributehhh,
                            __Z48emberAfClusterDefaultResponseWithMfgCodeCallbackhth13EmberAfStatusht,
                            __Z48emberAfDiscoverCommandsGeneratedResponseCallbackttbPht,
                            __Z48emberAfDoorLockClusterUnlockDoorResponseCallbackPN4chip3app7CommandEh,
                            __Z48emberAfFindClusterClientEndpointIndexWithMfgCodehtt,
                            __Z48emberAfKeypadInputClusterSendKeyResponseCallbackPN4chip3app7CommandEh,
                            __Z48emberAfPluginReportingConfigureReportedAttributePK27EmberAfPluginReportingEntry,
                            __Z48emberAfPluginReportingGetReportingConfigDefaultsP27EmberAfPluginReportingEntry,
                            __Z48emberAfReadReportingConfigurationCommandCallbackPK21EmberAfClusterCommand,
                            __Z48encodeBasicClusterReadManufacturingDateAttributehh,
                            __Z48encodeBindingClusterReadClusterRevisionAttributehh,
                            __Z48encodeColorControlClusterReadCurrentHueAttributehh,
                            __Z48encodeDoorLockClusterConfigureLockStateAttributehhtt,
                            __Z48encodeTestClusterClusterReadOctetStringAttributehh,
                            __Z48encodeTvChannelClusterReadTvChannelListAttributehh,
                            __Z49emAfPluginReportingConditionallyAddReportingEntryP27EmberAfPluginReportingEntry,
                            __Z49emberAfDoorLockClusterGetUserTypeResponseCallbackPN4chip3app7CommandEth,
                            __Z49emberAfDoorLockClusterSetUserTypeResponseCallbackPN4chip3app7CommandEh,
                            __Z49emberAfPluginReportingLoadReportingConfigDefaultsv,
                            __Z49emberAfReadReportingConfigurationResponseCallbacktPht,
                            __Z49encodeBridgedDeviceBasicClusterDiscoverAttributeshh,
                            __Z49encodeColorControlClusterReadWhitePointXAttributehh,
                            __Z49encodeColorControlClusterReadWhitePointYAttributehh,
                            __Z49encodeDoorLockClusterReadActuatorEnabledAttributehh,
                            __Z49encodeDoorLockClusterReadClusterRevisionAttributehh,
                            __Z49encodeGeneralDiagnosticsClusterDiscoverAttributeshh,
                            __Z49encodeGroupKeyManagementClusterDiscoverAttributeshh,
                            __Z49encodeIdentifyClusterReadClusterRevisionAttributehh,
                            __Z49encodeLowPowerClusterReadClusterRevisionAttributehh,
                            __Z49encodeSwitchClusterReadNumberOfPositionsAttributehh,
                            __Z49encodeTestClusterClusterWriteOctetStringAttributehhN4chip4SpanIhEE,
                            __Z50emberAfDoorLockClusterClearAllPinsResponseCallbackPN4chip3app7CommandEh,
                            __Z50emberAfDoorLockClusterGetLogRecordResponseCallbackPN4chip3app7CommandEtjhhhtPh,
                            __Z50emberAfIndexFromEndpointIncludingDisabledEndpointsh,
                            __Z50emberAfPluginIasZoneClientStateMachineEventHandlerv,
                            __Z50encodeApplicationBasicClusterReadVendorIdAttributehh,
                            __Z50encodeApplicationLauncherClusterDiscoverAttributeshh,
                            __Z50encodeBasicClusterReadLocalConfigDisabledAttributehh,
                            __Z50encodeColorControlClusterReadColorPointBXAttributehh,
                            __Z50encodeColorControlClusterReadColorPointBYAttributehh,
                            __Z50encodeColorControlClusterReadColorPointGXAttributehh,
                            __Z50encodeColorControlClusterReadColorPointGYAttributehh,
                            __Z50encodeColorControlClusterReadColorPointRXAttributehh,
                            __Z50encodeColorControlClusterReadColorPointRYAttributehh,
                            __Z50encodeColorControlClusterWriteWhitePointXAttributehht,
                            __Z50encodeColorControlClusterWriteWhitePointYAttributehht,
                            __Z50encodeGroupKeyManagementClusterReadGroupsAttributehh,
                            __Z50encodeLevelControlClusterReadCurrentLevelAttributehh,
                            __Z50encodeMediaInputClusterReadMediaInputListAttributehh,
                            __Z50encodeSoftwareDiagnosticsClusterDiscoverAttributeshh,
                            __Z50encodeTvChannelClusterReadClusterRevisionAttributehh,
                            __Z50encodeTvChannelClusterReadTvChannelLineupAttributehh,
                            __Z50encodeWakeOnLanClusterReadClusterRevisionAttributehh,
                            __Z51emberAfApplicationLauncherClusterClientCommandParseP21EmberAfClusterCommand,
                            __Z51emberAfDoorLockClusterClearAllRfidsResponseCallbackPN4chip3app7CommandEh,
                            __Z51emberAfIdentifyClusterIdentifyQueryResponseCallbackPN4chip3app7CommandEt,
                            __Z51emberAfScenesClusterRemoveAllScenesResponseCallbackPN4chip3app7CommandEht,
                            __Z51encodeApplicationBasicClusterReadProductIdAttributehh,
                            __Z51encodeBasicClusterWriteLocalConfigDisabledAttributehhh,
                            __Z51encodeColorControlClusterConfigureCurrentXAttributehhttt,
                            __Z51encodeColorControlClusterConfigureCurrentYAttributehhttt,
                            __Z51encodeColorControlClusterReadColorLoopTimeAttributehh,
                            __Z51encodeColorControlClusterReadRemainingTimeAttributehh,
                            __Z51encodeColorControlClusterWriteColorPointBXAttributehht,
                            __Z51encodeColorControlClusterWriteColorPointBYAttributehht,
                            __Z51encodeColorControlClusterWriteColorPointGXAttributehht,
                            __Z51encodeColorControlClusterWriteColorPointGYAttributehht,
                            __Z51encodeColorControlClusterWriteColorPointRXAttributehht,
                            __Z51encodeColorControlClusterWriteColorPointRYAttributehht,
                            __Z51encodeDescriptorClusterReadClusterRevisionAttributehh,
                            __Z51encodeFixedLabelClusterReadClusterRevisionAttributehh,
                            __Z51encodeGeneralCommissioningClusterDiscoverAttributeshh,
                            __Z51encodeMediaInputClusterReadClusterRevisionAttributehh,
                            __Z51encodeNetworkCommissioningClusterDiscoverAttributeshh,
                            __Z51encodeThermostatClusterReadClusterRevisionAttributehh,
                            __Z51encodeTvChannelClusterReadCurrentTvChannelAttributehh,
                            __Z52emberAfContentLaunchClusterLaunchURLResponseCallbackPN4chip3app7CommandEPhh,
                            __Z52emberAfGeneralCommissioningClusterClientCommandParseP21EmberAfClusterCommand,
                            __Z52emberAfMediaPlaybackClusterMediaNextResponseCallbackPN4chip3app7CommandEh,
                            __Z52emberAfMediaPlaybackClusterMediaPlayResponseCallbackPN4chip3app7CommandEh,
                            __Z52emberAfMediaPlaybackClusterMediaStopResponseCallbackPN4chip3app7CommandEh,
                            __Z52emberAfNetworkCommissioningClusterClientCommandParseP21EmberAfClusterCommand,
                            __Z52emberAfTvChannelClusterChangeChannelResponseCallbackPN4chip3app7CommandEPhh,
                            __Z52encodeApplicationBasicClusterReadVendorNameAttributehh,
                            __Z52encodeAudioOutputClusterReadAudioOutputListAttributehh,
                            __Z52encodeAudioOutputClusterReadClusterRevisionAttributehh,
                            __Z52encodeBasicClusterReadHardwareVersionStringAttributehh,
                            __Z52encodeBasicClusterReadSoftwareVersionStringAttributehh,
                            __Z52encodeBridgedDeviceBasicClusterReadVendorIDAttributehh,
                            __Z52encodeKeypadInputClusterReadClusterRevisionAttributehh,
                            __Z52encodeSwitchClusterConfigureCurrentPositionAttributehhtth,
                            __Z52encodeTestClusterClusterReadClusterRevisionAttributehh,
                            __Z52encodeTestClusterClusterReadListOctetStringAttributehh,
                            __Z52encodeThermostatClusterReadLocalTemperatureAttributehh,
                            __Z52encodeWindowCoveringClusterReadConfigStatusAttributehh,
                            __Z53emberAfAccountLoginClusterGetSetupPINResponseCallbackPN4chip3app7CommandEPh,
                            __Z53emberAfMediaPlaybackClusterMediaPauseResponseCallbackPN4chip3app7CommandEh,
                            __Z53emberAfTestClusterClusterTestSpecificResponseCallbackPN4chip3app7CommandEh,
                            __Z53encodeAccountLoginClusterReadClusterRevisionAttributehh,
                            __Z53encodeBinaryInputBasicClusterReadStatusFlagsAttributehh,
                            __Z53encodeBridgedDeviceBasicClusterReadReachableAttributehh,
                            __Z53encodeBridgedDeviceBasicClusterReadUserLabelAttributehh,
                            __Z53encodeColorControlClusterConfigureCurrentHueAttributehhtth,
                            __Z53encodeColorControlClusterReadClusterRevisionAttributehh,
                            __Z53encodeColorControlClusterReadColorLoopActiveAttributehh,
                            __Z53encodeGroupKeyManagementClusterReadGroupKeysAttributehh,
                            __Z53encodeLevelControlClusterReadClusterRevisionAttributehh,
                            __Z53encodeOperationalCredentialsClusterDiscoverAttributeshh,
                            __Z53encodeTemperatureMeasurementClusterDiscoverAttributeshh,
                            __Z54emberAfGroupsClusterGetGroupMembershipResponseCallbackPN4chip3app7CommandEhhPh,
                            __Z54emberAfMediaPlaybackClusterMediaRewindResponseCallbackPN4chip3app7CommandEh,
                            __Z54emberAfOperationalCredentialsClusterClientCommandParseP21EmberAfClusterCommand,
                            __Z54emberAfScenesClusterGetSceneMembershipResponseCallbackPN4chip3app7CommandEhhthPh,
                            __Z54encodeBasicClusterReadInteractionModelVersionAttributehh,
                            __Z54encodeBinaryInputBasicClusterReadOutOfServiceAttributehh,
                            __Z54encodeBinaryInputBasicClusterReadPresentValueAttributehh,
                            __Z54encodeBridgedDeviceBasicClusterReadPartNumberAttributehh,
                            __Z54encodeBridgedDeviceBasicClusterReadProductURLAttributehh,
                            __Z54encodeBridgedDeviceBasicClusterReadVendorNameAttributehh,
                            __Z54encodeBridgedDeviceBasicClusterWriteUserLabelAttributehhN4chip4SpanIhEE,
                            __Z54encodeColorControlClusterReadColorTemperatureAttributehh,
                            __Z54encodeColorControlClusterReadCompensationTextAttributehh,
                            __Z54encodeContentLaunchClusterReadClusterRevisionAttributehh,
                            __Z54encodeGeneralCommissioningClusterReadFabricIdAttributehh,
                            __Z54encodeMediaPlaybackClusterReadClusterRevisionAttributehh,
                            __Z54encodeTrustedRootCertificatesClusterDiscoverAttributeshh,
                            __Z54encodeWakeOnLanClusterReadWakeOnLanMacAddressAttributehh,
                            __Z55emberAfDoorLockClusterUnlockWithTimeoutResponseCallbackPN4chip3app7CommandEh,
                            __Z55emberAfFindClusterIncludingDisabledEndpointsWithMfgCodehtht,
                            __Z55emberAfPluginReportingGetDefaultReportingConfigCallbackP27EmberAfPluginReportingEntry,
                            __Z55encodeApplicationBasicClusterReadApplicationIdAttributehh,
                            __Z55encodeBarrierControlClusterReadBarrierPositionAttributehh,
                            __Z55encodeBarrierControlClusterReadClusterRevisionAttributehh,
                            __Z55encodeBinaryInputBasicClusterWriteOutOfServiceAttributehhh,
                            __Z55encodeBinaryInputBasicClusterWritePresentValueAttributehhh,
                            __Z55encodeBridgedDeviceBasicClusterReadProductNameAttributehh,
                            __Z55encodeColorControlClusterReadColorCapabilitiesAttributehh,
                            __Z55encodeColorControlClusterReadCurrentSaturationAttributehh,
                            __Z55encodeColorControlClusterReadDriftCompensationAttributehh,
                            __Z55encodeColorControlClusterReadEnhancedColorModeAttributehh,
                            __Z55encodeColorControlClusterReadNumberOfPrimariesAttributehh,
                            __Z55encodeColorControlClusterReadPrimary1IntensityAttributehh,
                            __Z55encodeColorControlClusterReadPrimary2IntensityAttributehh,
                            __Z55encodeColorControlClusterReadPrimary3IntensityAttributehh,
                            __Z55encodeColorControlClusterReadPrimary4IntensityAttributehh,
                            __Z55encodeColorControlClusterReadPrimary5IntensityAttributehh,
                            __Z55encodeColorControlClusterReadPrimary6IntensityAttributehh,
                            __Z55encodeGeneralDiagnosticsClusterReadRebootCountAttributehh,
                            __Z55encodeLevelControlClusterConfigureCurrentLevelAttributehhtth,
                            __Z55encodeWindowCoveringClusterReadClusterRevisionAttributehh,
                            __Z56emberAfContentLaunchClusterLaunchContentResponseCallbackPN4chip3app7CommandEPhh,
                            __Z56emberAfDoorLockClusterGetHolidayScheduleResponseCallbackPN4chip3app7CommandEhhjjh,
                            __Z56emberAfDoorLockClusterGetWeekdayScheduleResponseCallbackPN4chip3app7CommandEhthhhhhh,
                            __Z56emberAfDoorLockClusterGetYeardayScheduleResponseCallbackPN4chip3app7CommandEhthjj,
                            __Z56emberAfDoorLockClusterSetHolidayScheduleResponseCallbackPN4chip3app7CommandEh,
                            __Z56emberAfDoorLockClusterSetWeekdayScheduleResponseCallbackPN4chip3app7CommandEh,
                            __Z56emberAfDoorLockClusterSetYeardayScheduleResponseCallbackPN4chip3app7CommandEh,
                            __Z56emberAfMediaPlaybackClusterMediaPreviousResponseCallbackPN4chip3app7CommandEh,
                            __Z56emberAfMediaPlaybackClusterMediaSkipSeekResponseCallbackPN4chip3app7CommandEh,
                            __Z56encodeBridgedDeviceBasicClusterReadProductLabelAttributehh,
                            __Z56encodeBridgedDeviceBasicClusterReadSerialNumberAttributehh,
                            __Z56encodeColorControlClusterReadColorLoopDirectionAttributehh,
                            __Z56encodeColorControlClusterReadEnhancedCurrentHueAttributehh,
                            __Z56encodeContentLaunchClusterReadAcceptsHeaderListAttributehh,
                            __Z56encodeGeneralCommissioningClusterReadBreadcrumbAttributehh,
                            __Z56encodeTargetNavigatorClusterReadClusterRevisionAttributehh,
                            __Z57emberAfMediaPlaybackClusterMediaStartOverResponseCallbackPN4chip3app7CommandEh,
                            __Z57emberAfOperationalCredentialsClusterOpCSRResponseCallbackPN4chip3app7CommandENS_4SpanIhEES4_S4_S4_S4_S4_,
                            __Z57encodeApplicationBasicClusterReadApplicationNameAttributehh,
                            __Z57encodeApplicationBasicClusterReadCatalogVendorIdAttributehh,
                            __Z57encodeApplicationBasicClusterReadClusterRevisionAttributehh,
                            __Z57encodeBinaryInputBasicClusterReadClusterRevisionAttributehh,
                            __Z57encodeColorControlClusterReadColorControlOptionsAttributehh,
                            __Z57encodeEthernetNetworkDiagnosticsClusterDiscoverAttributeshh,
                            __Z57encodeGeneralCommissioningClusterWriteBreadcrumbAttributehhy,
                            __Z57encodeThermostatClusterConfigureLocalTemperatureAttributehhtts,
                            __Z57encodeWindowCoveringClusterConfigureConfigStatusAttributehhtt,
                            __Z58emberAfApplicationLauncherClusterLaunchAppResponseCallbackPN4chip3app7CommandEhPh,
                            __Z58emberAfDoorLockClusterClearHolidayScheduleResponseCallbackPN4chip3app7CommandEh,
                            __Z58emberAfDoorLockClusterClearWeekdayScheduleResponseCallbackPN4chip3app7CommandEh,
                            __Z58emberAfDoorLockClusterClearYeardayScheduleResponseCallbackPN4chip3app7CommandEh,
                            __Z58emberAfOperationalCredentialsClusterOpCertResponseCallbackPN4chip3app7CommandEhyPh,
                            __Z58encodeApplicationBasicClusterReadApplicationSatusAttributehh,
                            __Z58encodeBarrierControlClusterReadBarrierMovingStateAttributehh,
                            __Z58encodeBinaryInputBasicClusterConfigureStatusFlagsAttributehhtt,
                            __Z58encodeColorControlClusterReadColorPointBIntensityAttributehh,
                            __Z58encodeColorControlClusterReadColorPointGIntensityAttributehh,
                            __Z58encodeColorControlClusterReadColorPointRIntensityAttributehh,
                            __Z58encodeColorControlClusterReadColorTempPhysicalMaxAttributehh,
                            __Z58encodeColorControlClusterReadColorTempPhysicalMinAttributehh,
                            __Z58encodeColorControlClusterWriteColorControlOptionsAttributehhh,
                            __Z58encodePumpConfigurationAndControlClusterDiscoverAttributeshh,
                            __Z58encodeRelativeHumidityMeasurementClusterDiscoverAttributeshh,
                            __Z58encodeTestClusterClusterReadListStructOctetStringAttributehh,
                            __Z58encodeWindowCoveringClusterReadWindowCoveringTypeAttributehh,
                            __Z59emberAfMediaPlaybackClusterMediaFastForwardResponseCallbackPN4chip3app7CommandEh,
                            __Z59emberAfMediaPlaybackClusterMediaSkipForwardResponseCallbackPN4chip3app7CommandEh,
                            __Z59emberAfTargetNavigatorClusterNavigateTargetResponseCallbackPN4chip3app7CommandEhPh,
                            __Z59encodeBarrierControlClusterReadBarrierCapabilitiesAttributehh,
                            __Z59encodeBarrierControlClusterReadBarrierSafetyStatusAttributehh,
                            __Z59encodeBinaryInputBasicClusterConfigurePresentValueAttributehhtt,
                            __Z59encodeBridgedDeviceBasicClusterReadClusterRevisionAttributehh,
                            __Z59encodeBridgedDeviceBasicClusterReadHardwareVersionAttributehh,
                            __Z59encodeBridgedDeviceBasicClusterReadSoftwareVersionAttributehh,
                            __Z59encodeColorControlClusterConfigureColorTemperatureAttributehhttt,
                            __Z59encodeColorControlClusterWriteColorPointBIntensityAttributehhh,
                            __Z59encodeColorControlClusterWriteColorPointGIntensityAttributehhh,
                            __Z59encodeColorControlClusterWriteColorPointRIntensityAttributehhh,
                            __Z59encodeGeneralDiagnosticsClusterReadClusterRevisionAttributehh,
                            __Z59encodeGroupKeyManagementClusterReadClusterRevisionAttributehh,
                            __Z59encodeOperationalCredentialsClusterReadFabricsListAttributehh,
                            __Z59encodeThermostatClusterReadOccupiedCoolingSetpointAttributehh,
                            __Z59encodeThermostatClusterReadOccupiedHeatingSetpointAttributehh,
                            __Z59encodeWindowCoveringClusterReadCurrentPositionLiftAttributehh,
                            __Z59encodeWindowCoveringClusterReadCurrentPositionTiltAttributehh,
                            __Z60emberAfMediaPlaybackClusterMediaSkipBackwardResponseCallbackPN4chip3app7CommandEh,
                            __Z60encodeApplicationLauncherClusterReadClusterRevisionAttributehh,
                            __Z60encodeColorControlClusterConfigureCurrentSaturationAttributehhtth,
                            __Z60encodePumpConfigurationAndControlClusterReadMaxFlowAttributehh,
                            __Z60encodeSoftwareDiagnosticsClusterReadClusterRevisionAttributehh,
                            __Z60encodeTargetNavigatorClusterReadTargetNavigatorListAttributehh,
                            __Z60encodeThermostatClusterWriteOccupiedCoolingSetpointAttributehhs,
                            __Z60encodeThermostatClusterWriteOccupiedHeatingSetpointAttributehhs,
                            __Z61emberAfGeneralCommissioningClusterArmFailSafeResponseCallbackPN4chip3app7CommandEhPh,
                            __Z61emberAfOperationalCredentialsClusterSetFabricResponseCallbackPN4chip3app7CommandEy,
                            __Z61encodeBridgedDeviceBasicClusterReadManufacturingDateAttributehh,
                            __Z61encodeGeneralCommissioningClusterReadClusterRevisionAttributehh,
                            __Z61encodeGeneralDiagnosticsClusterReadNetworkInterfacesAttributehh,
                            __Z61encodeNetworkCommissioningClusterReadClusterRevisionAttributehh,
                            __Z61encodePumpConfigurationAndControlClusterReadCapacityAttributehh,
                            __Z61encodePumpConfigurationAndControlClusterReadMaxSpeedAttributehh,
                            __Z61encodeTemperatureMeasurementClusterReadMeasuredValueAttributehh,
                            __Z62emberAfNetworkCommissioningClusterScanNetworksResponseCallbackPN4chip3app7CommandEhPhS3_S3_,
                            __Z62encodeContentLaunchClusterReadSupportedStreamingTypesAttributehh,
                            __Z62encodeEthernetNetworkDiagnosticsClusterReadTxErrCountAttributehh,
                            __Z62encodeThermostatClusterReadControlSequenceOfOperationAttributehh,
                            __Z62encodeWindowCoveringClusterReadInstalledOpenLimitLiftAttributehh,
                            __Z62encodeWindowCoveringClusterReadInstalledOpenLimitTiltAttributehh,
                            __Z63emberAfNetworkCommissioningClusterEnableNetworkResponseCallbackPN4chip3app7CommandEhPh,
                            __Z63emberAfNetworkCommissioningClusterRemoveNetworkResponseCallbackPN4chip3app7CommandEhPh,
                            __Z63encodeOperationalCredentialsClusterReadClusterRevisionAttributehh,
                            __Z63encodeTemperatureMeasurementClusterReadClusterRevisionAttributehh,
                            __Z63encodeThermostatClusterWriteControlSequenceOfOperationAttributehhh,
                            __Z63encodeWindowCoveringClusterConfigureWindowCoveringTypeAttributehhtt,
                            __Z64emberAfNetworkCommissioningClusterAddWiFiNetworkResponseCallbackPN4chip3app7CommandEhPh,
                            __Z64emberAfNetworkCommissioningClusterDisableNetworkResponseCallbackPN4chip3app7CommandEhPh,
                            __Z64encodeEthernetNetworkDiagnosticsClusterReadOverrunCountAttributehh,
                            __Z64encodePumpConfigurationAndControlClusterReadMaxPressureAttributehh,
                            __Z64encodeTemperatureMeasurementClusterReadMaxMeasuredValueAttributehh,
                            __Z64encodeTemperatureMeasurementClusterReadMinMeasuredValueAttributehh,
                            __Z64encodeTrustedRootCertificatesClusterReadClusterRevisionAttributehh,
                            __Z64encodeWindowCoveringClusterConfigureCurrentPositionLiftAttributehhttt,
                            __Z64encodeWindowCoveringClusterConfigureCurrentPositionTiltAttributehhttt,
                            __Z64encodeWindowCoveringClusterReadInstalledClosedLimitLiftAttributehh,
                            __Z64encodeWindowCoveringClusterReadInstalledClosedLimitTiltAttributehh,
                            __Z65encodeBridgedDeviceBasicClusterReadHardwareVersionStringAttributehh,
                            __Z65encodeBridgedDeviceBasicClusterReadSoftwareVersionStringAttributehh,
                            __Z65encodeEthernetNetworkDiagnosticsClusterReadPacketRxCountAttributehh,
                            __Z65encodeEthernetNetworkDiagnosticsClusterReadPacketTxCountAttributehh,
                            __Z66emberAfNetworkCommissioningClusterAddThreadNetworkResponseCallbackPN4chip3app7CommandEhPh,
                            __Z66encodeEthernetNetworkDiagnosticsClusterReadCollisionCountAttributehh,
                            __Z66encodePumpConfigurationAndControlClusterConfigureCapacityAttributehhtts,
                            __Z66encodePumpConfigurationAndControlClusterReadOperationModeAttributehh,
                            __Z66encodeRelativeHumidityMeasurementClusterReadMeasuredValueAttributehh,
                            __Z66encodeTemperatureMeasurementClusterConfigureMeasuredValueAttributehhtts,
                            __Z67emberAfNetworkCommissioningClusterUpdateWiFiNetworkResponseCallbackPN4chip3app7CommandEhPh,
                            __Z67encodeColorControlClusterReadStartUpColorTemperatureMiredsAttributehh,
                            __Z67encodeEthernetNetworkDiagnosticsClusterReadClusterRevisionAttributehh,
                            __Z67encodePumpConfigurationAndControlClusterWriteOperationModeAttributehhh,
                            __Z68encodeApplicationLauncherClusterReadApplicationLauncherListAttributehh,
                            __Z68encodeColorControlClusterWriteStartUpColorTemperatureMiredsAttributehht,
                            __Z68encodePumpConfigurationAndControlClusterReadClusterRevisionAttributehh,
                            __Z68encodeRelativeHumidityMeasurementClusterReadClusterRevisionAttributehh,
                            __Z69emberAfGeneralCommissioningClusterSetRegulatoryConfigResponseCallbackPN4chip3app7CommandEhPh,
                            __Z69emberAfNetworkCommissioningClusterUpdateThreadNetworkResponseCallbackPN4chip3app7CommandEhPh,
                            __Z69encodeColorControlClusterReadCoupleColorTempToLevelMinMiredsAttributehh,
                            __Z69encodeRelativeHumidityMeasurementClusterReadMaxMeasuredValueAttributehh,
                            __Z69encodeRelativeHumidityMeasurementClusterReadMinMeasuredValueAttributehh,
                            __Z69encodeSoftwareDiagnosticsClusterReadCurrentHeapHighWatermarkAttributehh,
                            __Z71emberAfGeneralCommissioningClusterCommissioningCompleteResponseCallbackPN4chip3app7CommandEhPh,
                            __Z71encodeRelativeHumidityMeasurementClusterConfigureMeasuredValueAttributehhttt,
                            __Z73encodePumpConfigurationAndControlClusterReadEffectiveControlModeAttributehh,
                            __Z75encodePumpConfigurationAndControlClusterReadEffectiveOperationModeAttributehh,
                            __Z8emAfSendRKN4chip22MessageSendDestinationEP13EmberApsFramehPhS5_th,
                            __Z9LogStatush, __ZN10Verhoeff1010sPermTableE,
                            __ZN10Verhoeff1014sMultiplyTableE,
                            __ZN10Verhoeff1016ComputeCheckCharEPKc,
                            __ZN10Verhoeff1016ComputeCheckCharEPKcm,
                            __ZN10Verhoeff1017ValidateCheckCharEPKc,
                            __ZN10Verhoeff1017ValidateCheckCharEPKcm,
                            __ZN10Verhoeff1017ValidateCheckCharEcPKc,
                            __ZN10Verhoeff1017ValidateCheckCharEcPKcm,
                            __ZN10Verhoeff109CharToValEc,
                            __ZN10Verhoeff109ValToCharEi,
                            __ZN31CHIPDevicePairingDelegateBridge11setDelegateEPU36objcproto25CHIPDevicePairingDelegate11objc_objectPU28objcproto17OS_dispatch_queue8NSObject,
                            __ZN31CHIPDevicePairingDelegateBridge14OnStatusUpdateEN4chip10Controller21DevicePairingDelegate6StatusE,
                            __ZN31CHIPDevicePairingDelegateBridge16OnPairingDeletedEi,
                            __ZN31CHIPDevicePairingDelegateBridge17OnPairingCompleteEi,
                            __ZN31CHIPDevicePairingDelegateBridge23OnAddressUpdateCompleteEyi,
                            __ZN31CHIPDevicePairingDelegateBridge9MapStatusEN4chip10Controller21DevicePairingDelegate6StatusE,
                            __ZN31CHIPDevicePairingDelegateBridgeC1Ev,
                            __ZN31CHIPDevicePairingDelegateBridgeC2Ev,
                            __ZN31CHIPDevicePairingDelegateBridgeD0Ev,
                            __ZN31CHIPDevicePairingDelegateBridgeD1Ev,
                            __ZN31CHIPDevicePairingDelegateBridgeD2Ev,
                            __ZN34CHIPOperationalCredentialsDelegate10DeleteKeysEv,
                            __ZN34CHIPOperationalCredentialsDelegate11SetIssuerIDEP35CHIPPersistentStorageDelegateBridge,
                            __ZN34CHIPOperationalCredentialsDelegate12GenerateKeysEv,
                            __ZN34CHIPOperationalCredentialsDelegate15ToChipEpochTimeEjRj,
                            __ZN34CHIPOperationalCredentialsDelegate20ConvertToP256KeypairEP8__SecKey,
                            __ZN34CHIPOperationalCredentialsDelegate20GetRootCACertificateEyPhjRj,
                            __ZN34CHIPOperationalCredentialsDelegate20LoadKeysFromKeyChainEv,
                            __ZN34CHIPOperationalCredentialsDelegate34GenerateNodeOperationalCertificateERKN4chip6PeerIdERKNS0_4SpanIhEExPhjRj,
                            __ZN34CHIPOperationalCredentialsDelegate4initEP35CHIPPersistentStorageDelegateBridge,
                            __ZN35CHIPPersistentStorageDelegateBridge15SyncGetKeyValueEPKcPvRt,
                            __ZN35CHIPPersistentStorageDelegateBridge15SyncSetKeyValueEPKcPKvt,
                            __ZN35CHIPPersistentStorageDelegateBridge18SyncDeleteKeyValueEPKc,
                            __ZN35CHIPPersistentStorageDelegateBridge20setFrameworkDelegateEPU40objcproto29CHIPPersistentStorageDelegate11objc_object,
                            __ZN35CHIPPersistentStorageDelegateBridgeC1Ev,
                            __ZN35CHIPPersistentStorageDelegateBridgeC2Ev,
                            __ZN35CHIPPersistentStorageDelegateBridgeD0Ev,
                            __ZN35CHIPPersistentStorageDelegateBridgeD1Ev,
                            __ZN35CHIPPersistentStorageDelegateBridgeD2Ev,
                            __ZN4chip10Controller11ClusterBase10DissociateEv,
                            __ZN4chip10Controller11ClusterBase11SendCommandEhONS_6System18PacketBufferHandleEPNS_8Callback10CancelableES7_,
                            __ZN4chip10Controller11ClusterBase25RequestAttributeReportingEtPNS_8Callback10CancelableE,
                            __ZN4chip10Controller11ClusterBase9AssociateEPNS0_6DeviceEh,
                            __ZN4chip10Controller12BasicCluster15MfgSpecificPingEPNS_8Callback10CancelableES4_,
                            __ZN4chip10Controller12BasicCluster18DiscoverAttributesEPNS_8Callback10CancelableES4_,
                            __ZN4chip10Controller12BasicCluster21ReadAttributeLocationEPNS_8Callback10CancelableES4_,
                            __ZN4chip10Controller12BasicCluster21ReadAttributeVendorIDEPNS_8Callback10CancelableES4_,
                            __ZN4chip10Controller12BasicCluster22ReadAttributeProductIDEPNS_8Callback10CancelableES4_,
                            __ZN4chip10Controller12BasicCluster22ReadAttributeUserLabelEPNS_8Callback10CancelableES4_,
                            __ZN4chip10Controller12BasicCluster22WriteAttributeLocationEPNS_8Callback10CancelableES4_NS_4SpanIhEE,
                            __ZN4chip10Controller12BasicCluster23ReadAttributePartNumberEPNS_8Callback10CancelableES4_,
                            __ZN4chip10Controller12BasicCluster23ReadAttributeProductURLEPNS_8Callback10CancelableES4_,
                            __ZN4chip10Controller12BasicCluster23ReadAttributeVendorNameEPNS_8Callback10CancelableES4_,
                            __ZN4chip10Controller12BasicCluster23WriteAttributeUserLabelEPNS_8Callback10CancelableES4_NS_4SpanIhEE,
                            __ZN4chip10Controller12BasicCluster24ReadAttributeProductNameEPNS_8Callback10CancelableES4_,
                            __ZN4chip10Controller12BasicCluster25ReadAttributeProductLabelEPNS_8Callback10CancelableES4_,
                            __ZN4chip10Controller12BasicCluster25ReadAttributeSerialNumberEPNS_8Callback10CancelableES4_,
                            __ZN4chip10Controller12BasicCluster28ReadAttributeClusterRevisionEPNS_8Callback10CancelableES4_,
                            __ZN4chip10Controller12BasicCluster28ReadAttributeHardwareVersionEPNS_8Callback10CancelableES4_,
                            __ZN4chip10Controller12BasicCluster28ReadAttributeSoftwareVersionEPNS_8Callback10CancelableES4_,
                            __ZN4chip10Controller12BasicCluster30ReadAttributeManufacturingDateEPNS_8Callback10CancelableES4_,
                            __ZN4chip10Controller12BasicCluster32ReadAttributeLocalConfigDisabledEPNS_8Callback10CancelableES4_,
                            __ZN4chip10Controller12BasicCluster33WriteAttributeLocalConfigDisabledEPNS_8Callback10CancelableES4_h,
                            __ZN4chip10Controller12BasicCluster34ReadAttributeHardwareVersionStringEPNS_8Callback10CancelableES4_,
                            __ZN4chip10Controller12BasicCluster34ReadAttributeSoftwareVersionStringEPNS_8Callback10CancelableES4_,
                            __ZN4chip10Controller12BasicCluster36ReadAttributeInteractionModelVersionEPNS_8Callback10CancelableES4_,
                            __ZN4chip10Controller12BasicFailureEPvh,
                            __ZN4chip10Controller12BasicSuccessEPvt,
                            __ZN4chip10Controller12OnOffCluster18DiscoverAttributesEPNS_8Callback10CancelableES4_,
                            __ZN4chip10Controller12OnOffCluster18ReadAttributeOnOffEPNS_8Callback10CancelableES4_,
                            __ZN4chip10Controller12OnOffCluster20ReportAttributeOnOffEPNS_8Callback10CancelableE,
                            __ZN4chip10Controller12OnOffCluster23ConfigureAttributeOnOffEPNS_8Callback10CancelableES4_tt,
                            __ZN4chip10Controller12OnOffCluster28ReadAttributeClusterRevisionEPNS_8Callback10CancelableES4_,
                            __ZN4chip10Controller12OnOffCluster2OnEPNS_8Callback10CancelableES4_,
                            __ZN4chip10Controller12OnOffCluster3OffEPNS_8Callback10CancelableES4_,
                            __ZN4chip10Controller12OnOffCluster6ToggleEPNS_8Callback10CancelableES4_,
                            __ZN4chip10Controller13GroupsCluster11RemoveGroupEPNS_8Callback10CancelableES4_t,
                            __ZN4chip10Controller13GroupsCluster15RemoveAllGroupsEPNS_8Callback10CancelableES4_,
                            __ZN4chip10Controller13GroupsCluster18DiscoverAttributesEPNS_8Callback10CancelableES4_,
                            __ZN4chip10Controller13GroupsCluster18GetGroupMembershipEPNS_8Callback10CancelableES4_ht,
                            __ZN4chip10Controller13GroupsCluster21AddGroupIfIdentifyingEPNS_8Callback10CancelableES4_tNS_4SpanIhEE,
                            __ZN4chip10Controller13GroupsCluster24ReadAttributeNameSupportEPNS_8Callback10CancelableES4_,
                            __ZN4chip10Controller13GroupsCluster28ReadAttributeClusterRevisionEPNS_8Callback10CancelableES4_,
                            __ZN4chip10Controller13GroupsCluster8AddGroupEPNS_8Callback10CancelableES4_tNS_4SpanIhEE,
                            __ZN4chip10Controller13GroupsCluster9ViewGroupEPNS_8Callback10CancelableES4_t,
                            __ZN4chip10Controller13ScenesCluster10StoreSceneEPNS_8Callback10CancelableES4_th,
                            __ZN4chip10Controller13ScenesCluster11RecallSceneEPNS_8Callback10CancelableES4_tht,
                            __ZN4chip10Controller13ScenesCluster11RemoveSceneEPNS_8Callback10CancelableES4_th,
                            __ZN4chip10Controller13ScenesCluster15RemoveAllScenesEPNS_8Callback10CancelableES4_t,
                            __ZN4chip10Controller13ScenesCluster18DiscoverAttributesEPNS_8Callback10CancelableES4_,
                            __ZN4chip10Controller13ScenesCluster18GetSceneMembershipEPNS_8Callback10CancelableES4_t,
                            __ZN4chip10Controller13ScenesCluster23ReadAttributeSceneCountEPNS_8Callback10CancelableES4_,
                            __ZN4chip10Controller13ScenesCluster23ReadAttributeSceneValidEPNS_8Callback10CancelableES4_,
                            __ZN4chip10Controller13ScenesCluster24ReadAttributeNameSupportEPNS_8Callback10CancelableES4_,
                            __ZN4chip10Controller13ScenesCluster25ReadAttributeCurrentGroupEPNS_8Callback10CancelableES4_,
                            __ZN4chip10Controller13ScenesCluster25ReadAttributeCurrentSceneEPNS_8Callback10CancelableES4_,
                            __ZN4chip10Controller13ScenesCluster28ReadAttributeClusterRevisionEPNS_8Callback10CancelableES4_,
                            __ZN4chip10Controller13ScenesCluster8AddSceneEPNS_8Callback10CancelableES4_thtNS_4SpanIhEEthh,
                            __ZN4chip10Controller13ScenesCluster9ViewSceneEPNS_8Callback10CancelableES4_th,
                            __ZN4chip10Controller13SwitchCluster18DiscoverAttributesEPNS_8Callback10CancelableES4_,
                            __ZN4chip10Controller13SwitchCluster28ReadAttributeClusterRevisionEPNS_8Callback10CancelableES4_,
                            __ZN4chip10Controller13SwitchCluster28ReadAttributeCurrentPositionEPNS_8Callback10CancelableES4_,
                            __ZN4chip10Controller13SwitchCluster30ReadAttributeNumberOfPositionsEPNS_8Callback10CancelableES4_,
                            __ZN4chip10Controller13SwitchCluster30ReportAttributeCurrentPositionEPNS_8Callback10CancelableE,
                            __ZN4chip10Controller13SwitchCluster33ConfigureAttributeCurrentPositionEPNS_8Callback10CancelableES4_tth,
                            __ZN4chip10Controller14BindingCluster18DiscoverAttributesEPNS_8Callback10CancelableES4_,
                            __ZN4chip10Controller14BindingCluster28ReadAttributeClusterRevisionEPNS_8Callback10CancelableES4_,
                            __ZN4chip10Controller14BindingCluster4BindEPNS_8Callback10CancelableES4_ytht,
                            __ZN4chip10Controller14BindingCluster6UnbindEPNS_8Callback10CancelableES4_ytht,
                            __ZN4chip10Controller15DoorLockCluster10UnlockDoorEPNS_8Callback10CancelableES4_NS_4SpanIhEE,
                            __ZN4chip10Controller15DoorLockCluster11GetUserTypeEPNS_8Callback10CancelableES4_t,
                            __ZN4chip10Controller15DoorLockCluster11SetUserTypeEPNS_8Callback10CancelableES4_th,
                            __ZN4chip10Controller15DoorLockCluster12ClearAllPinsEPNS_8Callback10CancelableES4_,
                            __ZN4chip10Controller15DoorLockCluster12GetLogRecordEPNS_8Callback10CancelableES4_t,
                            __ZN4chip10Controller15DoorLockCluster13ClearAllRfidsEPNS_8Callback10CancelableES4_,
                            __ZN4chip10Controller15DoorLockCluster17UnlockWithTimeoutEPNS_8Callback10CancelableES4_tNS_4SpanIhEE,
                            __ZN4chip10Controller15DoorLockCluster18DiscoverAttributesEPNS_8Callback10CancelableES4_,
                            __ZN4chip10Controller15DoorLockCluster18GetHolidayScheduleEPNS_8Callback10CancelableES4_h,
                            __ZN4chip10Controller15DoorLockCluster18GetWeekdayScheduleEPNS_8Callback10CancelableES4_ht,
                            __ZN4chip10Controller15DoorLockCluster18GetYeardayScheduleEPNS_8Callback10CancelableES4_ht,
                            __ZN4chip10Controller15DoorLockCluster18SetHolidayScheduleEPNS_8Callback10CancelableES4_hjjh,
                            __ZN4chip10Controller15DoorLockCluster18SetWeekdayScheduleEPNS_8Callback10CancelableES4_hthhhhh,
                            __ZN4chip10Controller15DoorLockCluster18SetYeardayScheduleEPNS_8Callback10CancelableES4_htjj,
                            __ZN4chip10Controller15DoorLockCluster20ClearHolidayScheduleEPNS_8Callback10CancelableES4_h,
                            __ZN4chip10Controller15DoorLockCluster20ClearWeekdayScheduleEPNS_8Callback10CancelableES4_ht,
                            __ZN4chip10Controller15DoorLockCluster20ClearYeardayScheduleEPNS_8Callback10CancelableES4_ht,
                            __ZN4chip10Controller15DoorLockCluster21ReadAttributeLockTypeEPNS_8Callback10CancelableES4_,
                            __ZN4chip10Controller15DoorLockCluster22ReadAttributeLockStateEPNS_8Callback10CancelableES4_,
                            __ZN4chip10Controller15DoorLockCluster24ReportAttributeLockStateEPNS_8Callback10CancelableE,
                            __ZN4chip10Controller15DoorLockCluster27ConfigureAttributeLockStateEPNS_8Callback10CancelableES4_tt,
                            __ZN4chip10Controller15DoorLockCluster28ReadAttributeActuatorEnabledEPNS_8Callback10CancelableES4_,
                            __ZN4chip10Controller15DoorLockCluster28ReadAttributeClusterRevisionEPNS_8Callback10CancelableES4_,
                            __ZN4chip10Controller15DoorLockCluster6GetPinEPNS_8Callback10CancelableES4_t,
                            __ZN4chip10Controller15DoorLockCluster6SetPinEPNS_8Callback10CancelableES4_thhNS_4SpanIhEE,
                            __ZN4chip10Controller15DoorLockCluster7GetRfidEPNS_8Callback10CancelableES4_t,
                            __ZN4chip10Controller15DoorLockCluster7SetRfidEPNS_8Callback10CancelableES4_thhNS_4SpanIhEE,
                            __ZN4chip10Controller15DoorLockCluster8ClearPinEPNS_8Callback10CancelableES4_t,
                            __ZN4chip10Controller15DoorLockCluster8LockDoorEPNS_8Callback10CancelableES4_NS_4SpanIhEE,
                            __ZN4chip10Controller15DoorLockCluster9ClearRfidEPNS_8Callback10CancelableES4_t,
                            __ZN4chip10Controller15IdentifyCluster13IdentifyQueryEPNS_8Callback10CancelableES4_,
                            __ZN4chip10Controller15IdentifyCluster18DiscoverAttributesEPNS_8Callback10CancelableES4_,
                            __ZN4chip10Controller15IdentifyCluster25ReadAttributeIdentifyTimeEPNS_8Callback10CancelableES4_,
                            __ZN4chip10Controller15IdentifyCluster26WriteAttributeIdentifyTimeEPNS_8Callback10CancelableES4_t,
                            __ZN4chip10Controller15IdentifyCluster28ReadAttributeClusterRevisionEPNS_8Callback10CancelableES4_,
                            __ZN4chip10Controller15IdentifyCluster8IdentifyEPNS_8Callback10CancelableES4_t,
                            __ZN4chip10Controller15LowPowerCluster18DiscoverAttributesEPNS_8Callback10CancelableES4_,
                            __ZN4chip10Controller15LowPowerCluster28ReadAttributeClusterRevisionEPNS_8Callback10CancelableES4_,
                            __ZN4chip10Controller15LowPowerCluster5SleepEPNS_8Callback10CancelableES4_,
                            __ZN4chip10Controller16DeviceController12UpdateDeviceEPNS0_6DeviceEy,
                            __ZN4chip10Controller16DeviceController13PersistDeviceEPNS0_6DeviceE,
                            __ZN4chip10Controller16DeviceController13ReleaseDeviceEPNS0_6DeviceE,
                            __ZN4chip10Controller16DeviceController13ReleaseDeviceEt,
                            __ZN4chip10Controller16DeviceController13ServiceEventsEv,
                            __ZN4chip10Controller16DeviceController15FindDeviceIndexENS_19SecureSessionHandleE,
                            __ZN4chip10Controller16DeviceController15FindDeviceIndexEy,
                            __ZN4chip10Controller16DeviceController15OnNewConnectionENS_19SecureSessionHandleEPNS_9Messaging15ExchangeManagerE,
                            __ZN4chip10Controller16DeviceController16OnNodeIdResolvedERKNS_4Mdns16ResolvedNodeDataE,
                            __ZN4chip10Controller16DeviceController16PersistNextKeyIdEv,
                            __ZN4chip10Controller16DeviceController16SetUdpListenPortEt,
                            __ZN4chip10Controller16DeviceController17OnMessageReceivedEPNS_9Messaging15ExchangeContextERKNS_12PacketHeaderERKNS_13PayloadHeaderEONS_6System18PacketBufferHandleE,
                            __ZN4chip10Controller16DeviceController17OnResponseTimeoutEPNS_9Messaging15ExchangeContextE,
                            __ZN4chip10Controller16DeviceController17ReleaseAllDevicesEv,
                            __ZN4chip10Controller16DeviceController17ReleaseDeviceByIdEy,
                            __ZN4chip10Controller16DeviceController18ServiceEventSignalEv,
                            __ZN4chip10Controller16DeviceController19OnConnectionExpiredENS_19SecureSessionHandleEPNS_9Messaging15ExchangeManagerE,
                            __ZN4chip10Controller16DeviceController19SetPairedDeviceListENS_4SpanIhEE,
                            __ZN4chip10Controller16DeviceController20LoadLocalCredentialsEPNS_9Transport16AdminPairingInfoE,
                            __ZN4chip10Controller16DeviceController22GetInactiveDeviceIndexEv,
                            __ZN4chip10Controller16DeviceController24OnNodeIdResolutionFailedERKNS_6PeerIdEi,
                            __ZN4chip10Controller16DeviceController25OnCommissionableNodeFoundERKNS_4Mdns22CommissionableNodeDataE,
                            __ZN4chip10Controller16DeviceController26InitializePairedDeviceListEv,
                            __ZN4chip10Controller16DeviceController29GetControllerDeviceInitParamsEv,
                            __ZN4chip10Controller16DeviceController4InitEyNS0_20ControllerInitParamsE,
                            __ZN4chip10Controller16DeviceController8ShutdownEv,
                            __ZN4chip10Controller16DeviceController9GetDeviceEyPPNS0_6DeviceE,
                            __ZN4chip10Controller16DeviceController9GetDeviceEyRKNS0_16SerializedDeviceEPPNS0_6DeviceE,
                            __ZN4chip10Controller16DeviceControllerC1Ev,
                            __ZN4chip10Controller16DeviceControllerC2Ev,
                            __ZN4chip10Controller16TvChannelCluster11SkipChannelEPNS_8Callback10CancelableES4_t,
                            __ZN4chip10Controller16TvChannelCluster13ChangeChannelEPNS_8Callback10CancelableES4_NS_4SpanIhEE,
                            __ZN4chip10Controller16TvChannelCluster18DiscoverAttributesEPNS_8Callback10CancelableES4_,
                            __ZN4chip10Controller16TvChannelCluster21ChangeChannelByNumberEPNS_8Callback10CancelableES4_tt,
                            __ZN4chip10Controller16TvChannelCluster26ReadAttributeTvChannelListEPNS_8Callback10CancelableES4_,
                            __ZN4chip10Controller16TvChannelCluster28ReadAttributeClusterRevisionEPNS_8Callback10CancelableES4_,
                            __ZN4chip10Controller16TvChannelCluster28ReadAttributeTvChannelLineupEPNS_8Callback10CancelableES4_,
                            __ZN4chip10Controller16TvChannelCluster29ReadAttributeCurrentTvChannelEPNS_8Callback10CancelableES4_,
                            __ZN4chip10Controller16WakeOnLanCluster18DiscoverAttributesEPNS_8Callback10CancelableES4_,
                            __ZN4chip10Controller16WakeOnLanCluster28ReadAttributeClusterRevisionEPNS_8Callback10CancelableES4_,
                            __ZN4chip10Controller16WakeOnLanCluster32ReadAttributeWakeOnLanMacAddressEPNS_8Callback10CancelableES4_,
                            __ZN4chip10Controller17DescriptorCluster18DiscoverAttributesEPNS_8Callback10CancelableES4_,
                            __ZN4chip10Controller17DescriptorCluster22ReadAttributePartsListEPNS_8Callback10CancelableES4_,
                            __ZN4chip10Controller17DescriptorCluster23ReadAttributeClientListEPNS_8Callback10CancelableES4_,
                            __ZN4chip10Controller17DescriptorCluster23ReadAttributeDeviceListEPNS_8Callback10CancelableES4_,
                            __ZN4chip10Controller17DescriptorCluster23ReadAttributeServerListEPNS_8Callback10CancelableES4_,
                            __ZN4chip10Controller17DescriptorCluster28ReadAttributeClusterRevisionEPNS_8Callback10CancelableES4_,
                            __ZN4chip10Controller17FixedLabelCluster18DiscoverAttributesEPNS_8Callback10CancelableES4_,
                            __ZN4chip10Controller17FixedLabelCluster22ReadAttributeLabelListEPNS_8Callback10CancelableES4_,
                            __ZN4chip10Controller17FixedLabelCluster28ReadAttributeClusterRevisionEPNS_8Callback10CancelableES4_,
                            __ZN4chip10Controller17MediaInputCluster11RenameInputEPNS_8Callback10CancelableES4_hNS_4SpanIhEE,
                            __ZN4chip10Controller17MediaInputCluster11SelectInputEPNS_8Callback10CancelableES4_h,
                            __ZN4chip10Controller17MediaInputCluster15HideInputStatusEPNS_8Callback10CancelableES4_,
                            __ZN4chip10Controller17MediaInputCluster15ShowInputStatusEPNS_8Callback10CancelableES4_,
                            __ZN4chip10Controller17MediaInputCluster18DiscoverAttributesEPNS_8Callback10CancelableES4_,
                            __ZN4chip10Controller17MediaInputCluster27ReadAttributeMediaInputListEPNS_8Callback10CancelableES4_,
                            __ZN4chip10Controller17MediaInputCluster28ReadAttributeClusterRevisionEPNS_8Callback10CancelableES4_,
                            __ZN4chip10Controller17ThermostatCluster17GetRelayStatusLogEPNS_8Callback10CancelableES4_,
                            __ZN4chip10Controller17ThermostatCluster17GetWeeklyScheduleEPNS_8Callback10CancelableES4_hh,
                            __ZN4chip10Controller17ThermostatCluster17SetWeeklyScheduleEPNS_8Callback10CancelableES4_hhhh,
                            __ZN4chip10Controller17ThermostatCluster18DiscoverAttributesEPNS_8Callback10CancelableES4_,
                            __ZN4chip10Controller17ThermostatCluster18SetpointRaiseLowerEPNS_8Callback10CancelableES4_ha,
                            __ZN4chip10Controller17ThermostatCluster19ClearWeeklyScheduleEPNS_8Callback10CancelableES4_,
                            __ZN4chip10Controller17ThermostatCluster23ReadAttributeSystemModeEPNS_8Callback10CancelableES4_,
                            __ZN4chip10Controller17ThermostatCluster24WriteAttributeSystemModeEPNS_8Callback10CancelableES4_h,
                            __ZN4chip10Controller17ThermostatCluster28ReadAttributeClusterRevisionEPNS_8Callback10CancelableES4_,
                            __ZN4chip10Controller17ThermostatCluster29ReadAttributeLocalTemperatureEPNS_8Callback10CancelableES4_,
                            __ZN4chip10Controller17ThermostatCluster31ReportAttributeLocalTemperatureEPNS_8Callback10CancelableE,
                            __ZN4chip10Controller17ThermostatCluster34ConfigureAttributeLocalTemperatureEPNS_8Callback10CancelableES4_tts,
                            __ZN4chip10Controller17ThermostatCluster36ReadAttributeOccupiedCoolingSetpointEPNS_8Callback10CancelableES4_,
                            __ZN4chip10Controller17ThermostatCluster36ReadAttributeOccupiedHeatingSetpointEPNS_8Callback10CancelableES4_,
                            __ZN4chip10Controller17ThermostatCluster37WriteAttributeOccupiedCoolingSetpointEPNS_8Callback10CancelableES4_s,
                            __ZN4chip10Controller17ThermostatCluster37WriteAttributeOccupiedHeatingSetpointEPNS_8Callback10CancelableES4_s,
                            __ZN4chip10Controller17ThermostatCluster39ReadAttributeControlSequenceOfOperationEPNS_8Callback10CancelableES4_,
                            __ZN4chip10Controller17ThermostatCluster40WriteAttributeControlSequenceOfOperationEPNS_8Callback10CancelableES4_h,
                            __ZN4chip10Controller18AudioOutputCluster12RenameOutputEPNS_8Callback10CancelableES4_hNS_4SpanIhEE,
                            __ZN4chip10Controller18AudioOutputCluster12SelectOutputEPNS_8Callback10CancelableES4_h,
                            __ZN4chip10Controller18AudioOutputCluster18DiscoverAttributesEPNS_8Callback10CancelableES4_,
                            __ZN4chip10Controller18AudioOutputCluster28ReadAttributeAudioOutputListEPNS_8Callback10CancelableES4_,
                            __ZN4chip10Controller18AudioOutputCluster28ReadAttributeClusterRevisionEPNS_8Callback10CancelableES4_,
                            __ZN4chip10Controller18DeviceCommissioner10PairDeviceEyRNS_20RendezvousParametersE,
                            __ZN4chip10Controller18DeviceCommissioner11StopPairingEy,
                            __ZN4chip10Controller18DeviceCommissioner12ProcessOpCSRERKNS_4SpanIhEES5_S5_S5_S5_S5_,
                            __ZN4chip10Controller18DeviceCommissioner12UnpairDeviceEy,
                            __ZN4chip10Controller18DeviceCommissioner13ReleaseDeviceEPNS0_6DeviceE,
                            __ZN4chip10Controller18DeviceCommissioner16OnNodeIdResolvedERKNS_4Mdns16ResolvedNodeDataE,
                            __ZN4chip10Controller18DeviceCommissioner17PersistDeviceListEv,
                            __ZN4chip10Controller18DeviceCommissioner17RendezvousCleanupEi,
                            __ZN4chip10Controller18DeviceCommissioner18CloseBleConnectionEv,
                            __ZN4chip10Controller18DeviceCommissioner19GetDiscoveredDeviceEi,
                            __ZN4chip10Controller18DeviceCommissioner20OnCSRFailureResponseEPvh,
                            __ZN4chip10Controller18DeviceCommissioner20OnSessionEstablishedEv,
                            __ZN4chip10Controller18DeviceCommissioner21FreeRendezvousSessionEv,
                            __ZN4chip10Controller18DeviceCommissioner24DiscoverAllCommissioningEv,
                            __ZN4chip10Controller18DeviceCommissioner24OnNodeIdResolutionFailedERKNS_6PeerIdEi,
                            __ZN4chip10Controller18DeviceCommissioner25AdvanceCommissioningStageEi,
                            __ZN4chip10Controller18DeviceCommissioner25GetNextCommissioningStageEv,
                            __ZN4chip10Controller18DeviceCommissioner25OnRootCertFailureResponseEPvh,
                            __ZN4chip10Controller18DeviceCommissioner25OnRootCertSuccessResponseEPv,
                            __ZN4chip10Controller18DeviceCommissioner26OnAddOpCertFailureResponseEPvh,
                            __ZN4chip10Controller18DeviceCommissioner26SendOperationalCertificateEPNS0_6DeviceERKNS_4SpanIhEES7_,
                            __ZN4chip10Controller18DeviceCommissioner26SendTrustedRootCertificateEPNS0_6DeviceE,
                            __ZN4chip10Controller18DeviceCommissioner27OnSessionEstablishmentErrorEi,
                            __ZN4chip10Controller18DeviceCommissioner29OnSessionEstablishmentTimeoutEv,
                            __ZN4chip10Controller18DeviceCommissioner29PairTestDeviceWithoutSecurityEyRKNS_9Transport11PeerAddressERNS0_16SerializedDeviceE,
                            __ZN4chip10Controller18DeviceCommissioner35OnOperationalCertificateAddResponseEPvhyPh,
                            __ZN4chip10Controller18DeviceCommissioner37OnSessionEstablishmentTimeoutCallbackEPNS_6System5LayerEPvi,
                            __ZN4chip10Controller18DeviceCommissioner38DiscoverCommissioningLongDiscriminatorEt,
                            __ZN4chip10Controller18DeviceCommissioner38OnOperationalCertificateSigningRequestEPvNS_4SpanIhEES4_S4_S4_S4_S4_,
                            __ZN4chip10Controller18DeviceCommissioner46OnOperationalCredentialsProvisioningCompletionEPNS0_6DeviceE,
                            __ZN4chip10Controller18DeviceCommissioner47SendOperationalCertificateSigningRequestCommandEPNS0_6DeviceE,
                            __ZN4chip10Controller18DeviceCommissioner4InitEyNS0_22CommissionerInitParamsE,
                            __ZN4chip10Controller18DeviceCommissioner8ShutdownEv,
                            __ZN4chip10Controller18DeviceCommissionerC1Ev,
                            __ZN4chip10Controller18DeviceCommissionerC2Ev,
                            __ZN4chip10Controller18KeypadInputCluster18DiscoverAttributesEPNS_8Callback10CancelableES4_,
                            __ZN4chip10Controller18KeypadInputCluster28ReadAttributeClusterRevisionEPNS_8Callback10CancelableES4_,
                            __ZN4chip10Controller18KeypadInputCluster7SendKeyEPNS_8Callback10CancelableES4_h,
                            __ZN4chip10Controller18TestClusterCluster12TestSpecificEPNS_8Callback10CancelableES4_,
                            __ZN4chip10Controller18TestClusterCluster14TestNotHandledEPNS_8Callback10CancelableES4_,
                            __ZN4chip10Controller18TestClusterCluster18DiscoverAttributesEPNS_8Callback10CancelableES4_,
                            __ZN4chip10Controller18TestClusterCluster18ReadAttributeEnum8EPNS_8Callback10CancelableES4_,
                            __ZN4chip10Controller18TestClusterCluster18ReadAttributeInt8sEPNS_8Callback10CancelableES4_,
                            __ZN4chip10Controller18TestClusterCluster18ReadAttributeInt8uEPNS_8Callback10CancelableES4_,
                            __ZN4chip10Controller18TestClusterCluster18TestUnknownCommandEPNS_8Callback10CancelableES4_,
                            __ZN4chip10Controller18TestClusterCluster19ReadAttributeEnum16EPNS_8Callback10CancelableES4_,
                            __ZN4chip10Controller18TestClusterCluster19ReadAttributeInt16sEPNS_8Callback10CancelableES4_,
                            __ZN4chip10Controller18TestClusterCluster19ReadAttributeInt16uEPNS_8Callback10CancelableES4_,
                            __ZN4chip10Controller18TestClusterCluster19ReadAttributeInt32sEPNS_8Callback10CancelableES4_,
                            __ZN4chip10Controller18TestClusterCluster19ReadAttributeInt32uEPNS_8Callback10CancelableES4_,
                            __ZN4chip10Controller18TestClusterCluster19ReadAttributeInt64sEPNS_8Callback10CancelableES4_,
                            __ZN4chip10Controller18TestClusterCluster19ReadAttributeInt64uEPNS_8Callback10CancelableES4_,
                            __ZN4chip10Controller18TestClusterCluster19WriteAttributeEnum8EPNS_8Callback10CancelableES4_h,
                            __ZN4chip10Controller18TestClusterCluster19WriteAttributeInt8sEPNS_8Callback10CancelableES4_a,
                            __ZN4chip10Controller18TestClusterCluster19WriteAttributeInt8uEPNS_8Callback10CancelableES4_h,
                            __ZN4chip10Controller18TestClusterCluster20ReadAttributeBitmap8EPNS_8Callback10CancelableES4_,
                            __ZN4chip10Controller18TestClusterCluster20ReadAttributeBooleanEPNS_8Callback10CancelableES4_,
                            __ZN4chip10Controller18TestClusterCluster20WriteAttributeEnum16EPNS_8Callback10CancelableES4_t,
                            __ZN4chip10Controller18TestClusterCluster20WriteAttributeInt16sEPNS_8Callback10CancelableES4_s,
                            __ZN4chip10Controller18TestClusterCluster20WriteAttributeInt16uEPNS_8Callback10CancelableES4_t,
                            __ZN4chip10Controller18TestClusterCluster20WriteAttributeInt32sEPNS_8Callback10CancelableES4_i,
                            __ZN4chip10Controller18TestClusterCluster20WriteAttributeInt32uEPNS_8Callback10CancelableES4_j,
                            __ZN4chip10Controller18TestClusterCluster20WriteAttributeInt64sEPNS_8Callback10CancelableES4_x,
                            __ZN4chip10Controller18TestClusterCluster20WriteAttributeInt64uEPNS_8Callback10CancelableES4_y,
                            __ZN4chip10Controller18TestClusterCluster21ReadAttributeBitmap16EPNS_8Callback10CancelableES4_,
                            __ZN4chip10Controller18TestClusterCluster21ReadAttributeBitmap32EPNS_8Callback10CancelableES4_,
                            __ZN4chip10Controller18TestClusterCluster21ReadAttributeBitmap64EPNS_8Callback10CancelableES4_,
                            __ZN4chip10Controller18TestClusterCluster21WriteAttributeBitmap8EPNS_8Callback10CancelableES4_h,
                            __ZN4chip10Controller18TestClusterCluster21WriteAttributeBooleanEPNS_8Callback10CancelableES4_h,
                            __ZN4chip10Controller18TestClusterCluster22ReadAttributeListInt8uEPNS_8Callback10CancelableES4_,
                            __ZN4chip10Controller18TestClusterCluster22WriteAttributeBitmap16EPNS_8Callback10CancelableES4_t,
                            __ZN4chip10Controller18TestClusterCluster22WriteAttributeBitmap32EPNS_8Callback10CancelableES4_j,
                            __ZN4chip10Controller18TestClusterCluster22WriteAttributeBitmap64EPNS_8Callback10CancelableES4_y,
                            __ZN4chip10Controller18TestClusterCluster24ReadAttributeOctetStringEPNS_8Callback10CancelableES4_,
                            __ZN4chip10Controller18TestClusterCluster25WriteAttributeOctetStringEPNS_8Callback10CancelableES4_NS_4SpanIhEE,
                            __ZN4chip10Controller18TestClusterCluster28ReadAttributeClusterRevisionEPNS_8Callback10CancelableES4_,
                            __ZN4chip10Controller18TestClusterCluster28ReadAttributeListOctetStringEPNS_8Callback10CancelableES4_,
                            __ZN4chip10Controller18TestClusterCluster34ReadAttributeListStructOctetStringEPNS_8Callback10CancelableES4_,
                            __ZN4chip10Controller18TestClusterCluster4TestEPNS_8Callback10CancelableES4_,
                            __ZN4chip10Controller19AccountLoginCluster11GetSetupPINEPNS_8Callback10CancelableES4_NS_4SpanIhEE,
                            __ZN4chip10Controller19AccountLoginCluster18DiscoverAttributesEPNS_8Callback10CancelableES4_,
                            __ZN4chip10Controller19AccountLoginCluster28ReadAttributeClusterRevisionEPNS_8Callback10CancelableES4_,
                            __ZN4chip10Controller19AccountLoginCluster5LoginEPNS_8Callback10CancelableES4_NS_4SpanIhEES6_,
                            __ZN4chip10Controller19ColorControlCluster11MoveToColorEPNS_8Callback10CancelableES4_ttthh,
                            __ZN4chip10Controller19ColorControlCluster12StopMoveStepEPNS_8Callback10CancelableES4_hh,
                            __ZN4chip10Controller19ColorControlCluster14MoveSaturationEPNS_8Callback10CancelableES4_hhhh,
                            __ZN4chip10Controller19ColorControlCluster14StepSaturationEPNS_8Callback10CancelableES4_hhhhh,
                            __ZN4chip10Controller19ColorControlCluster16MoveToSaturationEPNS_8Callback10CancelableES4_hthh,
                            __ZN4chip10Controller19ColorControlCluster18DiscoverAttributesEPNS_8Callback10CancelableES4_,
                            __ZN4chip10Controller19ColorControlCluster20MoveColorTemperatureEPNS_8Callback10CancelableES4_httthh,
                            __ZN4chip10Controller19ColorControlCluster20StepColorTemperatureEPNS_8Callback10CancelableES4_htttthh,
                            __ZN4chip10Controller19ColorControlCluster21ReadAttributeCurrentXEPNS_8Callback10CancelableES4_,
                            __ZN4chip10Controller19ColorControlCluster21ReadAttributeCurrentYEPNS_8Callback10CancelableES4_,
                            __ZN4chip10Controller19ColorControlCluster22MoveToColorTemperatureEPNS_8Callback10CancelableES4_tthh,
                            __ZN4chip10Controller19ColorControlCluster22MoveToHueAndSaturationEPNS_8Callback10CancelableES4_hhthh,
                            __ZN4chip10Controller19ColorControlCluster22ReadAttributeColorModeEPNS_8Callback10CancelableES4_,
                            __ZN4chip10Controller19ColorControlCluster22ReadAttributePrimary1XEPNS_8Callback10CancelableES4_,
                            __ZN4chip10Controller19ColorControlCluster22ReadAttributePrimary1YEPNS_8Callback10CancelableES4_,
                            __ZN4chip10Controller19ColorControlCluster22ReadAttributePrimary2XEPNS_8Callback10CancelableES4_,
                            __ZN4chip10Controller19ColorControlCluster22ReadAttributePrimary2YEPNS_8Callback10CancelableES4_,
                            __ZN4chip10Controller19ColorControlCluster22ReadAttributePrimary3XEPNS_8Callback10CancelableES4_,
                            __ZN4chip10Controller19ColorControlCluster22ReadAttributePrimary3YEPNS_8Callback10CancelableES4_,
                            __ZN4chip10Controller19ColorControlCluster22ReadAttributePrimary4XEPNS_8Callback10CancelableES4_,
                            __ZN4chip10Controller19ColorControlCluster22ReadAttributePrimary4YEPNS_8Callback10CancelableES4_,
                            __ZN4chip10Controller19ColorControlCluster22ReadAttributePrimary5XEPNS_8Callback10CancelableES4_,
                            __ZN4chip10Controller19ColorControlCluster22ReadAttributePrimary5YEPNS_8Callback10CancelableES4_,
                            __ZN4chip10Controller19ColorControlCluster22ReadAttributePrimary6XEPNS_8Callback10CancelableES4_,
                            __ZN4chip10Controller19ColorControlCluster22ReadAttributePrimary6YEPNS_8Callback10CancelableES4_,
                            __ZN4chip10Controller19ColorControlCluster23ReadAttributeCurrentHueEPNS_8Callback10CancelableES4_,
                            __ZN4chip10Controller19ColorControlCluster23ReportAttributeCurrentXEPNS_8Callback10CancelableE,
                            __ZN4chip10Controller19ColorControlCluster23ReportAttributeCurrentYEPNS_8Callback10CancelableE,
                            __ZN4chip10Controller19ColorControlCluster24ReadAttributeWhitePointXEPNS_8Callback10CancelableES4_,
                            __ZN4chip10Controller19ColorControlCluster24ReadAttributeWhitePointYEPNS_8Callback10CancelableES4_,
                            __ZN4chip10Controller19ColorControlCluster25ReadAttributeColorPointBXEPNS_8Callback10CancelableES4_,
                            __ZN4chip10Controller19ColorControlCluster25ReadAttributeColorPointBYEPNS_8Callback10CancelableES4_,
                            __ZN4chip10Controller19ColorControlCluster25ReadAttributeColorPointGXEPNS_8Callback10CancelableES4_,
                            __ZN4chip10Controller19ColorControlCluster25ReadAttributeColorPointGYEPNS_8Callback10CancelableES4_,
                            __ZN4chip10Controller19ColorControlCluster25ReadAttributeColorPointRXEPNS_8Callback10CancelableES4_,
                            __ZN4chip10Controller19ColorControlCluster25ReadAttributeColorPointRYEPNS_8Callback10CancelableES4_,
                            __ZN4chip10Controller19ColorControlCluster25ReportAttributeCurrentHueEPNS_8Callback10CancelableE,
                            __ZN4chip10Controller19ColorControlCluster25WriteAttributeWhitePointXEPNS_8Callback10CancelableES4_t,
                            __ZN4chip10Controller19ColorControlCluster25WriteAttributeWhitePointYEPNS_8Callback10CancelableES4_t,
                            __ZN4chip10Controller19ColorControlCluster26ConfigureAttributeCurrentXEPNS_8Callback10CancelableES4_ttt,
                            __ZN4chip10Controller19ColorControlCluster26ConfigureAttributeCurrentYEPNS_8Callback10CancelableES4_ttt,
                            __ZN4chip10Controller19ColorControlCluster26ReadAttributeColorLoopTimeEPNS_8Callback10CancelableES4_,
                            __ZN4chip10Controller19ColorControlCluster26ReadAttributeRemainingTimeEPNS_8Callback10CancelableES4_,
                            __ZN4chip10Controller19ColorControlCluster26WriteAttributeColorPointBXEPNS_8Callback10CancelableES4_t,
                            __ZN4chip10Controller19ColorControlCluster26WriteAttributeColorPointBYEPNS_8Callback10CancelableES4_t,
                            __ZN4chip10Controller19ColorControlCluster26WriteAttributeColorPointGXEPNS_8Callback10CancelableES4_t,
                            __ZN4chip10Controller19ColorControlCluster26WriteAttributeColorPointGYEPNS_8Callback10CancelableES4_t,
                            __ZN4chip10Controller19ColorControlCluster26WriteAttributeColorPointRXEPNS_8Callback10CancelableES4_t,
                            __ZN4chip10Controller19ColorControlCluster26WriteAttributeColorPointRYEPNS_8Callback10CancelableES4_t,
                            __ZN4chip10Controller19ColorControlCluster28ConfigureAttributeCurrentHueEPNS_8Callback10CancelableES4_tth,
                            __ZN4chip10Controller19ColorControlCluster28ReadAttributeClusterRevisionEPNS_8Callback10CancelableES4_,
                            __ZN4chip10Controller19ColorControlCluster28ReadAttributeColorLoopActiveEPNS_8Callback10CancelableES4_,
                            __ZN4chip10Controller19ColorControlCluster29ReadAttributeColorTemperatureEPNS_8Callback10CancelableES4_,
                            __ZN4chip10Controller19ColorControlCluster29ReadAttributeCompensationTextEPNS_8Callback10CancelableES4_,
                            __ZN4chip10Controller19ColorControlCluster30ReadAttributeColorCapabilitiesEPNS_8Callback10CancelableES4_,
                            __ZN4chip10Controller19ColorControlCluster30ReadAttributeCurrentSaturationEPNS_8Callback10CancelableES4_,
                            __ZN4chip10Controller19ColorControlCluster30ReadAttributeDriftCompensationEPNS_8Callback10CancelableES4_,
                            __ZN4chip10Controller19ColorControlCluster30ReadAttributeEnhancedColorModeEPNS_8Callback10CancelableES4_,
                            __ZN4chip10Controller19ColorControlCluster30ReadAttributeNumberOfPrimariesEPNS_8Callback10CancelableES4_,
                            __ZN4chip10Controller19ColorControlCluster30ReadAttributePrimary1IntensityEPNS_8Callback10CancelableES4_,
                            __ZN4chip10Controller19ColorControlCluster30ReadAttributePrimary2IntensityEPNS_8Callback10CancelableES4_,
                            __ZN4chip10Controller19ColorControlCluster30ReadAttributePrimary3IntensityEPNS_8Callback10CancelableES4_,
                            __ZN4chip10Controller19ColorControlCluster30ReadAttributePrimary4IntensityEPNS_8Callback10CancelableES4_,
                            __ZN4chip10Controller19ColorControlCluster30ReadAttributePrimary5IntensityEPNS_8Callback10CancelableES4_,
                            __ZN4chip10Controller19ColorControlCluster30ReadAttributePrimary6IntensityEPNS_8Callback10CancelableES4_,
                            __ZN4chip10Controller19ColorControlCluster31ReadAttributeColorLoopDirectionEPNS_8Callback10CancelableES4_,
                            __ZN4chip10Controller19ColorControlCluster31ReadAttributeEnhancedCurrentHueEPNS_8Callback10CancelableES4_,
                            __ZN4chip10Controller19ColorControlCluster31ReportAttributeColorTemperatureEPNS_8Callback10CancelableE,
                            __ZN4chip10Controller19ColorControlCluster32ReadAttributeColorControlOptionsEPNS_8Callback10CancelableES4_,
                            __ZN4chip10Controller19ColorControlCluster32ReportAttributeCurrentSaturationEPNS_8Callback10CancelableE,
                            __ZN4chip10Controller19ColorControlCluster33ReadAttributeColorPointBIntensityEPNS_8Callback10CancelableES4_,
                            __ZN4chip10Controller19ColorControlCluster33ReadAttributeColorPointGIntensityEPNS_8Callback10CancelableES4_,
                            __ZN4chip10Controller19ColorControlCluster33ReadAttributeColorPointRIntensityEPNS_8Callback10CancelableES4_,
                            __ZN4chip10Controller19ColorControlCluster33ReadAttributeColorTempPhysicalMaxEPNS_8Callback10CancelableES4_,
                            __ZN4chip10Controller19ColorControlCluster33ReadAttributeColorTempPhysicalMinEPNS_8Callback10CancelableES4_,
                            __ZN4chip10Controller19ColorControlCluster33WriteAttributeColorControlOptionsEPNS_8Callback10CancelableES4_h,
                            __ZN4chip10Controller19ColorControlCluster34ConfigureAttributeColorTemperatureEPNS_8Callback10CancelableES4_ttt,
                            __ZN4chip10Controller19ColorControlCluster34WriteAttributeColorPointBIntensityEPNS_8Callback10CancelableES4_h,
                            __ZN4chip10Controller19ColorControlCluster34WriteAttributeColorPointGIntensityEPNS_8Callback10CancelableES4_h,
                            __ZN4chip10Controller19ColorControlCluster34WriteAttributeColorPointRIntensityEPNS_8Callback10CancelableES4_h,
                            __ZN4chip10Controller19ColorControlCluster35ConfigureAttributeCurrentSaturationEPNS_8Callback10CancelableES4_tth,
                            __ZN4chip10Controller19ColorControlCluster42ReadAttributeStartUpColorTemperatureMiredsEPNS_8Callback10CancelableES4_,
                            __ZN4chip10Controller19ColorControlCluster43WriteAttributeStartUpColorTemperatureMiredsEPNS_8Callback10CancelableES4_t,
                            __ZN4chip10Controller19ColorControlCluster44ReadAttributeCoupleColorTempToLevelMinMiredsEPNS_8Callback10CancelableES4_,
                            __ZN4chip10Controller19ColorControlCluster7MoveHueEPNS_8Callback10CancelableES4_hhhh,
                            __ZN4chip10Controller19ColorControlCluster7StepHueEPNS_8Callback10CancelableES4_hhhhh,
                            __ZN4chip10Controller19ColorControlCluster9MoveColorEPNS_8Callback10CancelableES4_sshh,
                            __ZN4chip10Controller19ColorControlCluster9MoveToHueEPNS_8Callback10CancelableES4_hhthh,
                            __ZN4chip10Controller19ColorControlCluster9StepColorEPNS_8Callback10CancelableES4_ssthh,
                            __ZN4chip10Controller19LevelControlCluster11MoveToLevelEPNS_8Callback10CancelableES4_hthh,
                            __ZN4chip10Controller19LevelControlCluster13MoveWithOnOffEPNS_8Callback10CancelableES4_hh,
                            __ZN4chip10Controller19LevelControlCluster13StepWithOnOffEPNS_8Callback10CancelableES4_hht,
                            __ZN4chip10Controller19LevelControlCluster13StopWithOnOffEPNS_8Callback10CancelableES4_,
                            __ZN4chip10Controller19LevelControlCluster18DiscoverAttributesEPNS_8Callback10CancelableES4_,
                            __ZN4chip10Controller19LevelControlCluster20MoveToLevelWithOnOffEPNS_8Callback10CancelableES4_ht,
                            __ZN4chip10Controller19LevelControlCluster25ReadAttributeCurrentLevelEPNS_8Callback10CancelableES4_,
                            __ZN4chip10Controller19LevelControlCluster27ReportAttributeCurrentLevelEPNS_8Callback10CancelableE,
                            __ZN4chip10Controller19LevelControlCluster28ReadAttributeClusterRevisionEPNS_8Callback10CancelableES4_,
                            __ZN4chip10Controller19LevelControlCluster30ConfigureAttributeCurrentLevelEPNS_8Callback10CancelableES4_tth,
                            __ZN4chip10Controller19LevelControlCluster4MoveEPNS_8Callback10CancelableES4_hhhh,
                            __ZN4chip10Controller19LevelControlCluster4StepEPNS_8Callback10CancelableES4_hhthh,
                            __ZN4chip10Controller19LevelControlCluster4StopEPNS_8Callback10CancelableES4_hh,
                            __ZN4chip10Controller20ContentLaunchCluster13LaunchContentEPNS_8Callback10CancelableES4_hNS_4SpanIhEE,
                            __ZN4chip10Controller20ContentLaunchCluster18DiscoverAttributesEPNS_8Callback10CancelableES4_,
                            __ZN4chip10Controller20ContentLaunchCluster28ReadAttributeClusterRevisionEPNS_8Callback10CancelableES4_,
                            __ZN4chip10Controller20ContentLaunchCluster30ReadAttributeAcceptsHeaderListEPNS_8Callback10CancelableES4_,
                            __ZN4chip10Controller20ContentLaunchCluster36ReadAttributeSupportedStreamingTypesEPNS_8Callback10CancelableES4_,
                            __ZN4chip10Controller20ContentLaunchCluster9LaunchURLEPNS_8Callback10CancelableES4_NS_4SpanIhEES6_,
                            __ZN4chip10Controller20MediaPlaybackCluster10MediaPauseEPNS_8Callback10CancelableES4_,
                            __ZN4chip10Controller20MediaPlaybackCluster11MediaRewindEPNS_8Callback10CancelableES4_,
                            __ZN4chip10Controller20MediaPlaybackCluster13MediaPreviousEPNS_8Callback10CancelableES4_,
                            __ZN4chip10Controller20MediaPlaybackCluster13MediaSkipSeekEPNS_8Callback10CancelableES4_y,
                            __ZN4chip10Controller20MediaPlaybackCluster14MediaStartOverEPNS_8Callback10CancelableES4_,
                            __ZN4chip10Controller20MediaPlaybackCluster16MediaFastForwardEPNS_8Callback10CancelableES4_,
                            __ZN4chip10Controller20MediaPlaybackCluster16MediaSkipForwardEPNS_8Callback10CancelableES4_y,
                            __ZN4chip10Controller20MediaPlaybackCluster17MediaSkipBackwardEPNS_8Callback10CancelableES4_y,
                            __ZN4chip10Controller20MediaPlaybackCluster18DiscoverAttributesEPNS_8Callback10CancelableES4_,
                            __ZN4chip10Controller20MediaPlaybackCluster28ReadAttributeClusterRevisionEPNS_8Callback10CancelableES4_,
                            __ZN4chip10Controller20MediaPlaybackCluster9MediaNextEPNS_8Callback10CancelableES4_,
                            __ZN4chip10Controller20MediaPlaybackCluster9MediaPlayEPNS_8Callback10CancelableES4_,
                            __ZN4chip10Controller20MediaPlaybackCluster9MediaStopEPNS_8Callback10CancelableES4_,
                            __ZN4chip10Controller21BarrierControlCluster18BarrierControlStopEPNS_8Callback10CancelableES4_,
                            __ZN4chip10Controller21BarrierControlCluster18DiscoverAttributesEPNS_8Callback10CancelableES4_,
                            __ZN4chip10Controller21BarrierControlCluster25BarrierControlGoToPercentEPNS_8Callback10CancelableES4_h,
                            __ZN4chip10Controller21BarrierControlCluster28ReadAttributeBarrierPositionEPNS_8Callback10CancelableES4_,
                            __ZN4chip10Controller21BarrierControlCluster28ReadAttributeClusterRevisionEPNS_8Callback10CancelableES4_,
                            __ZN4chip10Controller21BarrierControlCluster31ReadAttributeBarrierMovingStateEPNS_8Callback10CancelableES4_,
                            __ZN4chip10Controller21BarrierControlCluster32ReadAttributeBarrierCapabilitiesEPNS_8Callback10CancelableES4_,
                            __ZN4chip10Controller21BarrierControlCluster32ReadAttributeBarrierSafetyStatusEPNS_8Callback10CancelableES4_,
                            __ZN4chip10Controller21WindowCoveringCluster17ReadAttributeModeEPNS_8Callback10CancelableES4_,
                            __ZN4chip10Controller21WindowCoveringCluster18DiscoverAttributesEPNS_8Callback10CancelableES4_,
                            __ZN4chip10Controller21WindowCoveringCluster18WindowCoveringStopEPNS_8Callback10CancelableES4_,
                            __ZN4chip10Controller21WindowCoveringCluster18WriteAttributeModeEPNS_8Callback10CancelableES4_h,
                            __ZN4chip10Controller21WindowCoveringCluster20WindowCoveringUpOpenEPNS_8Callback10CancelableES4_,
                            __ZN4chip10Controller21WindowCoveringCluster23WindowCoveringDownCloseEPNS_8Callback10CancelableES4_,
                            __ZN4chip10Controller21WindowCoveringCluster25ReadAttributeConfigStatusEPNS_8Callback10CancelableES4_,
                            __ZN4chip10Controller21WindowCoveringCluster27ReportAttributeConfigStatusEPNS_8Callback10CancelableE,
                            __ZN4chip10Controller21WindowCoveringCluster27WindowCoveringGoToLiftValueEPNS_8Callback10CancelableES4_t,
                            __ZN4chip10Controller21WindowCoveringCluster27WindowCoveringGoToTiltValueEPNS_8Callback10CancelableES4_t,
                            __ZN4chip10Controller21WindowCoveringCluster28ReadAttributeClusterRevisionEPNS_8Callback10CancelableES4_,
                            __ZN4chip10Controller21WindowCoveringCluster30ConfigureAttributeConfigStatusEPNS_8Callback10CancelableES4_tt,
                            __ZN4chip10Controller21WindowCoveringCluster31ReadAttributeWindowCoveringTypeEPNS_8Callback10CancelableES4_,
                            __ZN4chip10Controller21WindowCoveringCluster32ReadAttributeCurrentPositionLiftEPNS_8Callback10CancelableES4_,
                            __ZN4chip10Controller21WindowCoveringCluster32ReadAttributeCurrentPositionTiltEPNS_8Callback10CancelableES4_,
                            __ZN4chip10Controller21WindowCoveringCluster32WindowCoveringGoToLiftPercentageEPNS_8Callback10CancelableES4_h,
                            __ZN4chip10Controller21WindowCoveringCluster32WindowCoveringGoToTiltPercentageEPNS_8Callback10CancelableES4_h,
                            __ZN4chip10Controller21WindowCoveringCluster33ReportAttributeWindowCoveringTypeEPNS_8Callback10CancelableE,
                            __ZN4chip10Controller21WindowCoveringCluster34ReportAttributeCurrentPositionLiftEPNS_8Callback10CancelableE,
                            __ZN4chip10Controller21WindowCoveringCluster34ReportAttributeCurrentPositionTiltEPNS_8Callback10CancelableE,
                            __ZN4chip10Controller21WindowCoveringCluster35ReadAttributeInstalledOpenLimitLiftEPNS_8Callback10CancelableES4_,
                            __ZN4chip10Controller21WindowCoveringCluster35ReadAttributeInstalledOpenLimitTiltEPNS_8Callback10CancelableES4_,
                            __ZN4chip10Controller21WindowCoveringCluster36ConfigureAttributeWindowCoveringTypeEPNS_8Callback10CancelableES4_tt,
                            __ZN4chip10Controller21WindowCoveringCluster37ConfigureAttributeCurrentPositionLiftEPNS_8Callback10CancelableES4_ttt,
                            __ZN4chip10Controller21WindowCoveringCluster37ConfigureAttributeCurrentPositionTiltEPNS_8Callback10CancelableES4_ttt,
                            __ZN4chip10Controller21WindowCoveringCluster37ReadAttributeInstalledClosedLimitLiftEPNS_8Callback10CancelableES4_,
                            __ZN4chip10Controller21WindowCoveringCluster37ReadAttributeInstalledClosedLimitTiltEPNS_8Callback10CancelableES4_,
                            __ZN4chip10Controller22TargetNavigatorCluster14NavigateTargetEPNS_8Callback10CancelableES4_hNS_4SpanIhEE,
                            __ZN4chip10Controller22TargetNavigatorCluster18DiscoverAttributesEPNS_8Callback10CancelableES4_,
                            __ZN4chip10Controller22TargetNavigatorCluster28ReadAttributeClusterRevisionEPNS_8Callback10CancelableES4_,
                            __ZN4chip10Controller22TargetNavigatorCluster32ReadAttributeTargetNavigatorListEPNS_8Callback10CancelableES4_,
                            __ZN4chip10Controller23ApplicationBasicCluster18DiscoverAttributesEPNS_8Callback10CancelableES4_,
                            __ZN4chip10Controller23ApplicationBasicCluster21ReadAttributeVendorIdEPNS_8Callback10CancelableES4_,
                            __ZN4chip10Controller23ApplicationBasicCluster22ReadAttributeProductIdEPNS_8Callback10CancelableES4_,
                            __ZN4chip10Controller23ApplicationBasicCluster23ReadAttributeVendorNameEPNS_8Callback10CancelableES4_,
                            __ZN4chip10Controller23ApplicationBasicCluster26ReadAttributeApplicationIdEPNS_8Callback10CancelableES4_,
                            __ZN4chip10Controller23ApplicationBasicCluster28ReadAttributeApplicationNameEPNS_8Callback10CancelableES4_,
                            __ZN4chip10Controller23ApplicationBasicCluster28ReadAttributeCatalogVendorIdEPNS_8Callback10CancelableES4_,
                            __ZN4chip10Controller23ApplicationBasicCluster28ReadAttributeClusterRevisionEPNS_8Callback10CancelableES4_,
                            __ZN4chip10Controller23ApplicationBasicCluster29ReadAttributeApplicationSatusEPNS_8Callback10CancelableES4_,
                            __ZN4chip10Controller23BinaryInputBasicCluster18DiscoverAttributesEPNS_8Callback10CancelableES4_,
                            __ZN4chip10Controller23BinaryInputBasicCluster24ReadAttributeStatusFlagsEPNS_8Callback10CancelableES4_,
                            __ZN4chip10Controller23BinaryInputBasicCluster25ReadAttributeOutOfServiceEPNS_8Callback10CancelableES4_,
                            __ZN4chip10Controller23BinaryInputBasicCluster25ReadAttributePresentValueEPNS_8Callback10CancelableES4_,
                            __ZN4chip10Controller23BinaryInputBasicCluster26ReportAttributeStatusFlagsEPNS_8Callback10CancelableE,
                            __ZN4chip10Controller23BinaryInputBasicCluster26WriteAttributeOutOfServiceEPNS_8Callback10CancelableES4_h,
                            __ZN4chip10Controller23BinaryInputBasicCluster26WriteAttributePresentValueEPNS_8Callback10CancelableES4_h,
                            __ZN4chip10Controller23BinaryInputBasicCluster27ReportAttributePresentValueEPNS_8Callback10CancelableE,
                            __ZN4chip10Controller23BinaryInputBasicCluster28ReadAttributeClusterRevisionEPNS_8Callback10CancelableES4_,
                            __ZN4chip10Controller23BinaryInputBasicCluster29ConfigureAttributeStatusFlagsEPNS_8Callback10CancelableES4_tt,
                            __ZN4chip10Controller23BinaryInputBasicCluster30ConfigureAttributePresentValueEPNS_8Callback10CancelableES4_tt,
                            __ZN4chip10Controller25BridgedDeviceBasicCluster18DiscoverAttributesEPNS_8Callback10CancelableES4_,
                            __ZN4chip10Controller25BridgedDeviceBasicCluster21ReadAttributeVendorIDEPNS_8Callback10CancelableES4_,
                            __ZN4chip10Controller25BridgedDeviceBasicCluster22ReadAttributeReachableEPNS_8Callback10CancelableES4_,
                            __ZN4chip10Controller25BridgedDeviceBasicCluster22ReadAttributeUserLabelEPNS_8Callback10CancelableES4_,
                            __ZN4chip10Controller25BridgedDeviceBasicCluster23ReadAttributePartNumberEPNS_8Callback10CancelableES4_,
                            __ZN4chip10Controller25BridgedDeviceBasicCluster23ReadAttributeProductURLEPNS_8Callback10CancelableES4_,
                            __ZN4chip10Controller25BridgedDeviceBasicCluster23ReadAttributeVendorNameEPNS_8Callback10CancelableES4_,
                            __ZN4chip10Controller25BridgedDeviceBasicCluster23WriteAttributeUserLabelEPNS_8Callback10CancelableES4_NS_4SpanIhEE,
                            __ZN4chip10Controller25BridgedDeviceBasicCluster24ReadAttributeProductNameEPNS_8Callback10CancelableES4_,
                            __ZN4chip10Controller25BridgedDeviceBasicCluster25ReadAttributeProductLabelEPNS_8Callback10CancelableES4_,
                            __ZN4chip10Controller25BridgedDeviceBasicCluster25ReadAttributeSerialNumberEPNS_8Callback10CancelableES4_,
                            __ZN4chip10Controller25BridgedDeviceBasicCluster28ReadAttributeClusterRevisionEPNS_8Callback10CancelableES4_,
                            __ZN4chip10Controller25BridgedDeviceBasicCluster28ReadAttributeHardwareVersionEPNS_8Callback10CancelableES4_,
                            __ZN4chip10Controller25BridgedDeviceBasicCluster28ReadAttributeSoftwareVersionEPNS_8Callback10CancelableES4_,
                            __ZN4chip10Controller25BridgedDeviceBasicCluster30ReadAttributeManufacturingDateEPNS_8Callback10CancelableES4_,
                            __ZN4chip10Controller25BridgedDeviceBasicCluster34ReadAttributeHardwareVersionStringEPNS_8Callback10CancelableES4_,
                            __ZN4chip10Controller25BridgedDeviceBasicCluster34ReadAttributeSoftwareVersionStringEPNS_8Callback10CancelableES4_,
                            __ZN4chip10Controller25GeneralDiagnosticsCluster18DiscoverAttributesEPNS_8Callback10CancelableES4_,
                            __ZN4chip10Controller25GeneralDiagnosticsCluster24ReadAttributeRebootCountEPNS_8Callback10CancelableES4_,
                            __ZN4chip10Controller25GeneralDiagnosticsCluster28ReadAttributeClusterRevisionEPNS_8Callback10CancelableES4_,
                            __ZN4chip10Controller25GeneralDiagnosticsCluster30ReadAttributeNetworkInterfacesEPNS_8Callback10CancelableES4_,
                            __ZN4chip10Controller25GroupKeyManagementCluster18DiscoverAttributesEPNS_8Callback10CancelableES4_,
                            __ZN4chip10Controller25GroupKeyManagementCluster19ReadAttributeGroupsEPNS_8Callback10CancelableES4_,
                            __ZN4chip10Controller25GroupKeyManagementCluster22ReadAttributeGroupKeysEPNS_8Callback10CancelableES4_,
                            __ZN4chip10Controller25GroupKeyManagementCluster28ReadAttributeClusterRevisionEPNS_8Callback10CancelableES4_,
                            __ZN4chip10Controller26ApplicationLauncherCluster18DiscoverAttributesEPNS_8Callback10CancelableES4_,
                            __ZN4chip10Controller26ApplicationLauncherCluster28ReadAttributeClusterRevisionEPNS_8Callback10CancelableES4_,
                            __ZN4chip10Controller26ApplicationLauncherCluster36ReadAttributeApplicationLauncherListEPNS_8Callback10CancelableES4_,
                            __ZN4chip10Controller26ApplicationLauncherCluster9LaunchAppEPNS_8Callback10CancelableES4_NS_4SpanIhEEtS6_,
                            __ZN4chip10Controller26SoftwareDiagnosticsCluster15ResetWatermarksEPNS_8Callback10CancelableES4_,
                            __ZN4chip10Controller26SoftwareDiagnosticsCluster18DiscoverAttributesEPNS_8Callback10CancelableES4_,
                            __ZN4chip10Controller26SoftwareDiagnosticsCluster28ReadAttributeClusterRevisionEPNS_8Callback10CancelableES4_,
                            __ZN4chip10Controller26SoftwareDiagnosticsCluster37ReadAttributeCurrentHeapHighWatermarkEPNS_8Callback10CancelableES4_,
                            __ZN4chip10Controller27GeneralCommissioningCluster11ArmFailSafeEPNS_8Callback10CancelableES4_tyj,
                            __ZN4chip10Controller27GeneralCommissioningCluster18DiscoverAttributesEPNS_8Callback10CancelableES4_,
                            __ZN4chip10Controller27GeneralCommissioningCluster19SetRegulatoryConfigEPNS_8Callback10CancelableES4_hNS_4SpanIhEEyj,
                            __ZN4chip10Controller27GeneralCommissioningCluster21CommissioningCompleteEPNS_8Callback10CancelableES4_,
                            __ZN4chip10Controller27GeneralCommissioningCluster21ReadAttributeFabricIdEPNS_8Callback10CancelableES4_,
                            __ZN4chip10Controller27GeneralCommissioningCluster23ReadAttributeBreadcrumbEPNS_8Callback10CancelableES4_,
                            __ZN4chip10Controller27GeneralCommissioningCluster24WriteAttributeBreadcrumbEPNS_8Callback10CancelableES4_y,
                            __ZN4chip10Controller27GeneralCommissioningCluster28ReadAttributeClusterRevisionEPNS_8Callback10CancelableES4_,
                            __ZN4chip10Controller27NetworkCommissioningCluster12ScanNetworksEPNS_8Callback10CancelableES4_NS_4SpanIhEEyj,
                            __ZN4chip10Controller27NetworkCommissioningCluster13EnableNetworkEPNS_8Callback10CancelableES4_NS_4SpanIhEEyj,
                            __ZN4chip10Controller27NetworkCommissioningCluster13RemoveNetworkEPNS_8Callback10CancelableES4_NS_4SpanIhEEyj,
                            __ZN4chip10Controller27NetworkCommissioningCluster14AddWiFiNetworkEPNS_8Callback10CancelableES4_NS_4SpanIhEES6_yj,
                            __ZN4chip10Controller27NetworkCommissioningCluster14DisableNetworkEPNS_8Callback10CancelableES4_NS_4SpanIhEEyj,
                            __ZN4chip10Controller27NetworkCommissioningCluster16AddThreadNetworkEPNS_8Callback10CancelableES4_NS_4SpanIhEEyj,
                            __ZN4chip10Controller27NetworkCommissioningCluster17UpdateWiFiNetworkEPNS_8Callback10CancelableES4_NS_4SpanIhEES6_yj,
                            __ZN4chip10Controller27NetworkCommissioningCluster18DiscoverAttributesEPNS_8Callback10CancelableES4_,
                            __ZN4chip10Controller27NetworkCommissioningCluster19UpdateThreadNetworkEPNS_8Callback10CancelableES4_NS_4SpanIhEEyj,
                            __ZN4chip10Controller27NetworkCommissioningCluster28ReadAttributeClusterRevisionEPNS_8Callback10CancelableES4_,
                            __ZN4chip10Controller27NetworkCommissioningCluster33GetLastNetworkCommissioningResultEPNS_8Callback10CancelableES4_j,
                            __ZN4chip10Controller29OperationalCredentialsCluster12OpCSRRequestEPNS_8Callback10CancelableES4_NS_4SpanIhEE,
                            __ZN4chip10Controller29OperationalCredentialsCluster12RemoveFabricEPNS_8Callback10CancelableES4_yyt,
                            __ZN4chip10Controller29OperationalCredentialsCluster16RemoveAllFabricsEPNS_8Callback10CancelableES4_,
                            __ZN4chip10Controller29OperationalCredentialsCluster17UpdateFabricLabelEPNS_8Callback10CancelableES4_NS_4SpanIhEE,
                            __ZN4chip10Controller29OperationalCredentialsCluster18DiscoverAttributesEPNS_8Callback10CancelableES4_,
                            __ZN4chip10Controller29OperationalCredentialsCluster24ReadAttributeFabricsListEPNS_8Callback10CancelableES4_,
                            __ZN4chip10Controller29OperationalCredentialsCluster28ReadAttributeClusterRevisionEPNS_8Callback10CancelableES4_,
                            __ZN4chip10Controller29OperationalCredentialsCluster9AddOpCertEPNS_8Callback10CancelableES4_NS_4SpanIhEES6_S6_yt,
                            __ZN4chip10Controller29OperationalCredentialsCluster9SetFabricEPNS_8Callback10CancelableES4_t,
                            __ZN4chip10Controller29TemperatureMeasurementCluster18DiscoverAttributesEPNS_8Callback10CancelableES4_,
                            __ZN4chip10Controller29TemperatureMeasurementCluster26ReadAttributeMeasuredValueEPNS_8Callback10CancelableES4_,
                            __ZN4chip10Controller29TemperatureMeasurementCluster28ReadAttributeClusterRevisionEPNS_8Callback10CancelableES4_,
                            __ZN4chip10Controller29TemperatureMeasurementCluster28ReportAttributeMeasuredValueEPNS_8Callback10CancelableE,
                            __ZN4chip10Controller29TemperatureMeasurementCluster29ReadAttributeMaxMeasuredValueEPNS_8Callback10CancelableES4_,
                            __ZN4chip10Controller29TemperatureMeasurementCluster29ReadAttributeMinMeasuredValueEPNS_8Callback10CancelableES4_,
                            __ZN4chip10Controller29TemperatureMeasurementCluster31ConfigureAttributeMeasuredValueEPNS_8Callback10CancelableES4_tts,
                            __ZN4chip10Controller30TrustedRootCertificatesCluster18DiscoverAttributesEPNS_8Callback10CancelableES4_,
                            __ZN4chip10Controller30TrustedRootCertificatesCluster25AddTrustedRootCertificateEPNS_8Callback10CancelableES4_NS_4SpanIhEE,
                            __ZN4chip10Controller30TrustedRootCertificatesCluster28ReadAttributeClusterRevisionEPNS_8Callback10CancelableES4_,
                            __ZN4chip10Controller30TrustedRootCertificatesCluster28RemoveTrustedRootCertificateEPNS_8Callback10CancelableES4_NS_4SpanIhEE,
                            __ZN4chip10Controller33EthernetNetworkDiagnosticsCluster11ResetCountsEPNS_8Callback10CancelableES4_,
                            __ZN4chip10Controller33EthernetNetworkDiagnosticsCluster18DiscoverAttributesEPNS_8Callback10CancelableES4_,
                            __ZN4chip10Controller33EthernetNetworkDiagnosticsCluster23ReadAttributeTxErrCountEPNS_8Callback10CancelableES4_,
                            __ZN4chip10Controller33EthernetNetworkDiagnosticsCluster25ReadAttributeOverrunCountEPNS_8Callback10CancelableES4_,
                            __ZN4chip10Controller33EthernetNetworkDiagnosticsCluster26ReadAttributePacketRxCountEPNS_8Callback10CancelableES4_,
                            __ZN4chip10Controller33EthernetNetworkDiagnosticsCluster26ReadAttributePacketTxCountEPNS_8Callback10CancelableES4_,
                            __ZN4chip10Controller33EthernetNetworkDiagnosticsCluster27ReadAttributeCollisionCountEPNS_8Callback10CancelableES4_,
                            __ZN4chip10Controller33EthernetNetworkDiagnosticsCluster28ReadAttributeClusterRevisionEPNS_8Callback10CancelableES4_,
                            __ZN4chip10Controller34PumpConfigurationAndControlCluster18DiscoverAttributesEPNS_8Callback10CancelableES4_,
                            __ZN4chip10Controller34PumpConfigurationAndControlCluster20ReadAttributeMaxFlowEPNS_8Callback10CancelableES4_,
                            __ZN4chip10Controller34PumpConfigurationAndControlCluster21ReadAttributeCapacityEPNS_8Callback10CancelableES4_,
                            __ZN4chip10Controller34PumpConfigurationAndControlCluster21ReadAttributeMaxSpeedEPNS_8Callback10CancelableES4_,
                            __ZN4chip10Controller34PumpConfigurationAndControlCluster23ReportAttributeCapacityEPNS_8Callback10CancelableE,
                            __ZN4chip10Controller34PumpConfigurationAndControlCluster24ReadAttributeMaxPressureEPNS_8Callback10CancelableES4_,
                            __ZN4chip10Controller34PumpConfigurationAndControlCluster26ConfigureAttributeCapacityEPNS_8Callback10CancelableES4_tts,
                            __ZN4chip10Controller34PumpConfigurationAndControlCluster26ReadAttributeOperationModeEPNS_8Callback10CancelableES4_,
                            __ZN4chip10Controller34PumpConfigurationAndControlCluster27WriteAttributeOperationModeEPNS_8Callback10CancelableES4_h,
                            __ZN4chip10Controller34PumpConfigurationAndControlCluster28ReadAttributeClusterRevisionEPNS_8Callback10CancelableES4_,
                            __ZN4chip10Controller34PumpConfigurationAndControlCluster33ReadAttributeEffectiveControlModeEPNS_8Callback10CancelableES4_,
                            __ZN4chip10Controller34PumpConfigurationAndControlCluster35ReadAttributeEffectiveOperationModeEPNS_8Callback10CancelableES4_,
                            __ZN4chip10Controller34RelativeHumidityMeasurementCluster18DiscoverAttributesEPNS_8Callback10CancelableES4_,
                            __ZN4chip10Controller34RelativeHumidityMeasurementCluster26ReadAttributeMeasuredValueEPNS_8Callback10CancelableES4_,
                            __ZN4chip10Controller34RelativeHumidityMeasurementCluster28ReadAttributeClusterRevisionEPNS_8Callback10CancelableES4_,
                            __ZN4chip10Controller34RelativeHumidityMeasurementCluster28ReportAttributeMeasuredValueEPNS_8Callback10CancelableE,
                            __ZN4chip10Controller34RelativeHumidityMeasurementCluster29ReadAttributeMaxMeasuredValueEPNS_8Callback10CancelableES4_,
                            __ZN4chip10Controller34RelativeHumidityMeasurementCluster29ReadAttributeMinMeasuredValueEPNS_8Callback10CancelableES4_,
                            __ZN4chip10Controller34RelativeHumidityMeasurementCluster31ConfigureAttributeMeasuredValueEPNS_8Callback10CancelableES4_ttt,
                            __ZN4chip10Controller40DeviceControllerInteractionModelDelegate20CommandResponseErrorEPKNS_3app13CommandSenderEi,
                            __ZN4chip10Controller40DeviceControllerInteractionModelDelegate21CommandResponseStatusEPKNS_3app13CommandSenderENS_9Protocols13SecureChannel17GeneralStatusCodeEjththh,
                            __ZN4chip10Controller40DeviceControllerInteractionModelDelegate24CommandResponseProcessedEPKNS_3app13CommandSenderE,
                            __ZN4chip10Controller40DeviceControllerInteractionModelDelegate28CommandResponseProtocolErrorEPKNS_3app13CommandSenderEh,
                            __ZN4chip10Controller6Device11DeserializeERKNS0_16SerializedDeviceE,
                            __ZN4chip10Controller6Device11SendMessageENS_9Protocols2IdEhONS_6System18PacketBufferHandleE,
                            __ZN4chip10Controller6Device12SendCommandsEPNS_3app13CommandSenderE,
                            __ZN4chip10Controller6Device13UpdateAddressERKNS_9Transport11PeerAddressE,
                            __ZN4chip10Controller6Device15OnNewConnectionENS_19SecureSessionHandleE,
                            __ZN4chip10Controller6Device16AddReportHandlerEhttPNS_8Callback10CancelableE,
                            __ZN4chip10Controller6Device17OnMessageReceivedEPNS_9Messaging15ExchangeContextERKNS_12PacketHeaderERKNS_13PayloadHeaderEONS_6System18PacketBufferHandleE,
                            __ZN4chip10Controller6Device17OnResponseTimeoutEPNS_9Messaging15ExchangeContextE,
                            __ZN4chip10Controller6Device17OpenPairingWindowEjNS1_19PairingWindowOptionERNS_12SetupPayloadE,
                            __ZN4chip10Controller6Device18AddResponseHandlerEhPNS_8Callback10CancelableES4_,
                            __ZN4chip10Controller6Device19OnConnectionExpiredENS_19SecureSessionHandleE,
                            __ZN4chip10Controller6Device20AddIMResponseHandlerEPNS_3app7CommandEPNS_8Callback10CancelableES7_,
                            __ZN4chip10Controller6Device20EstablishCASESessionEv,
                            __ZN4chip10Controller6Device20OnSessionEstablishedEv,
                            __ZN4chip10Controller6Device21CancelResponseHandlerEh,
                            __ZN4chip10Controller6Device23CancelIMResponseHandlerEPNS_3app7CommandE,
                            __ZN4chip10Controller6Device27LoadSecureSessionParametersENS1_14ResetTransportE,
                            __ZN4chip10Controller6Device27OnSessionEstablishmentErrorEi,
                            __ZN4chip10Controller6Device35LoadSecureSessionParametersIfNeededERb,
                            __ZN4chip10Controller6Device5ResetEv,
                            __ZN4chip10Controller6Device7PersistEv,
                            __ZN4chip10Controller6Device9SerializeERNS0_16SerializedDeviceE,
                            __ZN4chip10Controller6DeviceD0Ev,
                            __ZN4chip10Controller6DeviceD1Ev,
                            __ZN4chip10Controller6DeviceD2Ev,
                            __ZN4chip10GetRandU16Ev, __ZN4chip10GetRandU32Ev,
                            __ZN4chip10GetRandU64Ev, __ZN4chip10IsLeapYearEt,
                            __ZN4chip11CASESession10ComputeIPKEtPhm,
                            __ZN4chip11CASESession11DeserializeERNS_21CASESessionSerializedE,
                            __ZN4chip11CASESession11SendSigmaR1Ev,
                            __ZN4chip11CASESession11SendSigmaR2Ev,
                            __ZN4chip11CASESession11SendSigmaR3Ev,
                            __ZN4chip11CASESession12SendErrorMsgENS0_14SigmaErrorTypeE,
                            __ZN4chip11CASESession13CloseExchangeEv,
                            __ZN4chip11CASESession13HandleSigmaR1ERKNS_6System18PacketBufferHandleE,
                            __ZN4chip11CASESession13HandleSigmaR2ERKNS_6System18PacketBufferHandleE,
                            __ZN4chip11CASESession13HandleSigmaR3ERKNS_6System18PacketBufferHandleE,
                            __ZN4chip11CASESession14HandleErrorMsgERKNS_6System18PacketBufferHandleE,
                            __ZN4chip11CASESession14ToSerializableERNS_23CASESessionSerializableE,
                            __ZN4chip11CASESession16EstablishSessionENS_9Transport11PeerAddressEPNS_11Credentials24OperationalCredentialSetEytPNS_9Messaging15ExchangeContextEPNS_28SessionEstablishmentDelegateE,
                            __ZN4chip11CASESession16FromSerializableERKNS_23CASESessionSerializableE,
                            __ZN4chip11CASESession16SetEffectiveTimeEv,
                            __ZN4chip11CASESession17OnMessageReceivedEPNS_9Messaging15ExchangeContextERKNS_12PacketHeaderERKNS_13PayloadHeaderEONS_6System18PacketBufferHandleE,
                            __ZN4chip11CASESession17OnResponseTimeoutEPNS_9Messaging15ExchangeContextE,
                            __ZN4chip11CASESession19DeriveSecureSessionERNS_13SecureSessionENS1_11SessionRoleE,
                            __ZN4chip11CASESession20ConstructSaltSigmaR2ERKNS_6System18PacketBufferHandleERKNS_6Crypto13P256PublicKeyEPKhmRS2_,
                            __ZN4chip11CASESession20ConstructSaltSigmaR3EPKhmRNS_6System18PacketBufferHandleE,
                            __ZN4chip11CASESession20FindValidTrustedRootEPPKhj,
                            __ZN4chip11CASESession23ValidateReceivedMessageEPNS_9Messaging15ExchangeContextERKNS_12PacketHeaderERKNS_13PayloadHeaderERNS_6System18PacketBufferHandleE,
                            __ZN4chip11CASESession26ConstructSignedCredentialsEPPKhS2_tRNS_6System18PacketBufferHandleERNS_6Crypto19CapacityBoundBufferILm72EEEm,
                            __ZN4chip11CASESession29HandleSigmaR1_and_SendSigmaR2ERKNS_6System18PacketBufferHandleE,
                            __ZN4chip11CASESession29HandleSigmaR2_and_SendSigmaR3ERKNS_6System18PacketBufferHandleE,
                            __ZN4chip11CASESession29ListenForSessionEstablishmentEPNS_11Credentials24OperationalCredentialSetEtPNS_28SessionEstablishmentDelegateE,
                            __ZN4chip11CASESession32Validate_and_RetrieveResponderIDEPPKhRNS_6Crypto13P256PublicKeyES3_Rt,
                            __ZN4chip11CASESession4InitEPNS_11Credentials24OperationalCredentialSetEtPNS_28SessionEstablishmentDelegateE,
                            __ZN4chip11CASESession5ClearEv,
                            __ZN4chip11CASESession9SerializeERNS_21CASESessionSerializedE,
                            __ZN4chip11CASESessionC1Ev,
                            __ZN4chip11CASESessionC2Ev,
                            __ZN4chip11CASESessionD0Ev,
                            __ZN4chip11CASESessionD1Ev,
                            __ZN4chip11CASESessionD2Ev,
                            __ZN4chip11Credentials12DecodeChipDNERNS_3TLV9TLVReaderERNS0_6ChipDNE,
                            __ZN4chip11Credentials13EncodeTBSCertERKNS0_21X509CertRequestParamsENS0_22CertificateIssuerLevelEyRKNS_6Crypto13P256PublicKeyES8_RNS_4ASN110ASN1WriterE,
                            __ZN4chip11Credentials14DecodeChipCertEPKhjRNS0_19ChipCertificateDataE,
                            __ZN4chip11Credentials14DecodeChipCertERNS_3TLV9TLVReaderERNS0_19ChipCertificateDataE,
                            __ZN4chip11Credentials14NewICAX509CertERKNS0_21X509CertRequestParamsEyRKNS_6Crypto13P256PublicKeyERNS4_11P256KeypairEPhjRj,
                            __ZN4chip11Credentials15NewChipX509CertERKNS0_21X509CertRequestParamsENS0_22CertificateIssuerLevelEyRKNS_6Crypto13P256PublicKeyERNS5_11P256KeypairEPhjRj,
                            __ZN4chip11Credentials15NewRootX509CertERKNS0_21X509CertRequestParamsERNS_6Crypto11P256KeypairEPhjRj,
                            __ZN4chip11Credentials17ValidationContext5ResetEv,
                            __ZN4chip11Credentials18ChipCertificateSet12ValidateCertEPKNS0_19ChipCertificateDataERNS0_17ValidationContextE,
                            __ZN4chip11Credentials18ChipCertificateSet12ValidateCertEPKNS0_19ChipCertificateDataERNS0_17ValidationContextENS_8BitFlagsINS0_17CertValidateFlagsEhEEh,
                            __ZN4chip11Credentials18ChipCertificateSet13FindValidCertERKNS0_6ChipDNERKNS0_16CertificateKeyIdERNS0_17ValidationContextENS_8BitFlagsINS0_17CertValidateFlagsEhEEhRPNS0_19ChipCertificateDataE,
                            __ZN4chip11Credentials18ChipCertificateSet13FindValidCertERKNS0_6ChipDNERKNS0_16CertificateKeyIdERNS0_17ValidationContextERPNS0_19ChipCertificateDataE,
                            __ZN4chip11Credentials18ChipCertificateSet15VerifySignatureEPKNS0_19ChipCertificateDataES4_,
                            __ZN4chip11Credentials18ChipCertificateSet4InitEPNS0_19ChipCertificateDataEhPht,
                            __ZN4chip11Credentials18ChipCertificateSet4InitEht,
                            __ZN4chip11Credentials18ChipCertificateSet5ClearEv,
                            __ZN4chip11Credentials18ChipCertificateSet7ReleaseEv,
                            __ZN4chip11Credentials18ChipCertificateSet8LoadCertEPKhjNS_8BitFlagsINS0_15CertDecodeFlagsEhEE,
                            __ZN4chip11Credentials18ChipCertificateSet8LoadCertERNS_3TLV9TLVReaderENS_8BitFlagsINS0_15CertDecodeFlagsEhEENS_4SpanIhEE,
                            __ZN4chip11Credentials18ChipCertificateSet9LoadCertsEPKhjNS_8BitFlagsINS0_15CertDecodeFlagsEhEE,
                            __ZN4chip11Credentials18ChipCertificateSet9LoadCertsERNS_3TLV9TLVReaderENS_8BitFlagsINS0_15CertDecodeFlagsEhEE,
                            __ZN4chip11Credentials18ChipCertificateSetC1Ev,
                            __ZN4chip11Credentials18ChipCertificateSetC2Ev,
                            __ZN4chip11Credentials18ChipCertificateSetD1Ev,
                            __ZN4chip11Credentials18ChipCertificateSetD2Ev,
                            __ZN4chip11Credentials19ASN1ToChipEpochTimeERKNS_4ASN117ASN1UniversalTimeERj,
                            __ZN4chip11Credentials19ChipCertificateData5ClearEv,
                            __ZN4chip11Credentials19ChipCertificateDataC1Ev,
                            __ZN4chip11Credentials19ChipCertificateDataC2Ev,
                            __ZN4chip11Credentials19ChipCertificateDataD1Ev,
                            __ZN4chip11Credentials19ChipCertificateDataD2Ev,
                            __ZN4chip11Credentials19ChipEpochToASN1TimeEjRNS_4ASN117ASN1UniversalTimeE,
                            __ZN4chip11Credentials20DecodeConvertTBSCertERNS_3TLV9TLVReaderERNS_4ASN110ASN1WriterERNS0_19ChipCertificateDataE,
                            __ZN4chip11Credentials20DecodeECDSASignatureERNS_3TLV9TLVReaderERNS0_19ChipCertificateDataE,
                            __ZN4chip11Credentials22ConvertIntegerDERToRawEPKhtPht,
                            __ZN4chip11Credentials22ConvertIntegerRawToDEREPKhtPhtRt,
                            __ZN4chip11Credentials24OperationalCredentialSet11CleanupMapsEv,
                            __ZN4chip11Credentials24OperationalCredentialSet12SetDevOpCredERKNS0_16CertificateKeyIdEPKht,
                            __ZN4chip11Credentials24OperationalCredentialSet12ValidateCertERKNS0_16CertificateKeyIdEPKNS0_19ChipCertificateDataERNS0_17ValidationContextE,
                            __ZN4chip11Credentials24OperationalCredentialSet13FindValidCertERKNS0_16CertificateKeyIdERKNS0_6ChipDNES4_RNS0_17ValidationContextERPNS0_19ChipCertificateDataE,
                            __ZN4chip11Credentials24OperationalCredentialSet14ToSerializableERKNS0_16CertificateKeyIdERNS0_33OperationalCredentialSerializableE,
                            __ZN4chip11Credentials24OperationalCredentialSet16FromSerializableERKNS0_33OperationalCredentialSerializableE,
                            __ZN4chip11Credentials24OperationalCredentialSet16GetNodeKeypairAtERKNS0_16CertificateKeyIdE,
                            __ZN4chip11Credentials24OperationalCredentialSet19SetDevOpCredKeypairERKNS0_16CertificateKeyIdEPNS_6Crypto11P256KeypairE,
                            __ZN4chip11Credentials24OperationalCredentialSet4InitEPNS0_18ChipCertificateSetEh,
                            __ZN4chip11Credentials24OperationalCredentialSet4InitEh,
                            __ZN4chip11Credentials24OperationalCredentialSet5ClearEv,
                            __ZN4chip11Credentials24OperationalCredentialSet7ReleaseEv,
                            __ZN4chip11Credentials24OperationalCredentialSet7SignMsgERKNS0_16CertificateKeyIdEPKhmRNS_6Crypto19CapacityBoundBufferILm72EEE,
                            __ZN4chip11Credentials25ConvertChipCertToX509CertEPKhjPhjRj,
                            __ZN4chip11Credentials25ConvertX509CertToChipCertEPKhjPhjRj,
                            __ZN4chip11Credentials26NewNodeOperationalX509CertERKNS0_21X509CertRequestParamsENS0_22CertificateIssuerLevelERKNS_6Crypto13P256PublicKeyERNS5_11P256KeypairEPhjRj,
                            __ZN4chip11Credentials29ConvertECDSASignatureDERToRawERNS_4ASN110ASN1ReaderERNS_3TLV9TLVWriterEy,
                            __ZN4chip11Credentials29ConvertECDSASignatureRawToDEREPKhtPhtRt,
                            __ZN4chip11Credentials29ConvertECDSASignatureRawToDEREPKhtRNS_4ASN110ASN1WriterE,
                            __ZN4chip11Credentials6ChipDN12AddAttributeEtPKhj,
                            __ZN4chip11Credentials6ChipDN12AddAttributeEty,
                            __ZN4chip11Credentials6ChipDN5ClearEv,
                            __ZN4chip11Credentials6ChipDNC1Ev,
                            __ZN4chip11Credentials6ChipDNC2Ev,
                            __ZN4chip11Credentials6ChipDND1Ev,
                            __ZN4chip11Credentials6ChipDND2Ev,
                            __ZN4chip11DaysInMonthEth,
                            __ZN4chip11DeviceLayer11SystemLayerE,
                            __ZN4chip11DeviceLayer18Parse24HourTimeStrEPKcRhS3_S3_,
                            __ZN4chip11DeviceLayer19PlatformManagerImpl10_PostEventEPKNS0_15ChipDeviceEventE,
                            __ZN4chip11DeviceLayer19PlatformManagerImpl13_RunEventLoopEv,
                            __ZN4chip11DeviceLayer19PlatformManagerImpl14_InitChipStackEv,
                            __ZN4chip11DeviceLayer19PlatformManagerImpl18_StopEventLoopTaskEv,
                            __ZN4chip11DeviceLayer19PlatformManagerImpl19_StartEventLoopTaskEv,
                            __ZN4chip11DeviceLayer19PlatformManagerImpl9_ShutdownEv,
                            __ZN4chip11DeviceLayer19PlatformManagerImpl9sInstanceE,
                            __ZN4chip11DeviceLayer20ParseCompilerDateStrEPKcRtRhS4_,
                            __ZN4chip11DeviceLayer22FormatDeviceLayerErrorEPcti,
                            __ZN4chip11DeviceLayer23CharacterizeIPv6AddressERKNS_4Inet9IPAddressE,
                            __ZN4chip11DeviceLayer23ConnectivityManagerImpl16_OnPlatformEventEPKNS0_15ChipDeviceEventE,
                            __ZN4chip11DeviceLayer23ConnectivityManagerImpl5_InitEv,
                            __ZN4chip11DeviceLayer23ConnectivityManagerImpl9sInstanceE,
                            __ZN4chip11DeviceLayer24ConfigurationManagerImpl16_CanFactoryResetEv,
                            __ZN4chip11DeviceLayer24ConfigurationManagerImpl21_InitiateFactoryResetEv,
                            __ZN4chip11DeviceLayer24ConfigurationManagerImpl25_GetPrimaryWiFiMACAddressEPh,
                            __ZN4chip11DeviceLayer24ConfigurationManagerImpl26_ReadPersistedStorageValueEPKcRj,
                            __ZN4chip11DeviceLayer24ConfigurationManagerImpl27_WritePersistedStorageValueEPKcj,
                            __ZN4chip11DeviceLayer24ConfigurationManagerImpl5_InitEv,
                            __ZN4chip11DeviceLayer24ConfigurationManagerImpl9sInstanceE,
                            __ZN4chip11DeviceLayer33RegisterDeviceLayerErrorFormatterEv,
                            __ZN4chip11DeviceLayer8Internal11PosixConfig14ClearNamespaceEPKc,
                            __ZN4chip11DeviceLayer8Internal11PosixConfig15EnsureNamespaceEPKc,
                            __ZN4chip11DeviceLayer8Internal11PosixConfig15ReadConfigValueENS2_3KeyERb,
                            __ZN4chip11DeviceLayer8Internal11PosixConfig15ReadConfigValueENS2_3KeyERj,
                            __ZN4chip11DeviceLayer8Internal11PosixConfig15ReadConfigValueENS2_3KeyERy,
                            __ZN4chip11DeviceLayer8Internal11PosixConfig16ClearConfigValueENS2_3KeyE,
                            __ZN4chip11DeviceLayer8Internal11PosixConfig16WriteConfigValueENS2_3KeyEb,
                            __ZN4chip11DeviceLayer8Internal11PosixConfig16WriteConfigValueENS2_3KeyEj,
                            __ZN4chip11DeviceLayer8Internal11PosixConfig16WriteConfigValueENS2_3KeyEy,
                            __ZN4chip11DeviceLayer8Internal11PosixConfig17ConfigValueExistsENS2_3KeyE,
                            __ZN4chip11DeviceLayer8Internal11PosixConfig17RunConfigUnitTestEv,
                            __ZN4chip11DeviceLayer8Internal11PosixConfig18FactoryResetConfigEv,
                            __ZN4chip11DeviceLayer8Internal11PosixConfig18ReadConfigValueBinENS2_3KeyEPhmRm,
                            __ZN4chip11DeviceLayer8Internal11PosixConfig18ReadConfigValueStrENS2_3KeyEPcmRm,
                            __ZN4chip11DeviceLayer8Internal11PosixConfig19WriteConfigValueBinENS2_3KeyEPKhm,
                            __ZN4chip11DeviceLayer8Internal11PosixConfig19WriteConfigValueStrENS2_3KeyEPKc,
                            __ZN4chip11DeviceLayer8Internal11PosixConfig19WriteConfigValueStrENS2_3KeyEPKcm,
                            __ZN4chip11DeviceLayer8Internal11PosixConfig19kConfigKey_FabricIdE,
                            __ZN4chip11DeviceLayer8Internal11PosixConfig19kGroupKeyNamePrefixE,
                            __ZN4chip11DeviceLayer8Internal11PosixConfig20kConfigKey_SerialNumE,
                            __ZN4chip11DeviceLayer8Internal11PosixConfig20kConfigKey_ServiceIdE,
                            __ZN4chip11DeviceLayer8Internal11PosixConfig21kConfigKey_BreadcrumbE,
                            __ZN4chip11DeviceLayer8Internal11PosixConfig22kConfigKey_CountryCodeE,
                            __ZN4chip11DeviceLayer8Internal11PosixConfig22kConfigKey_MfrDeviceIdE,
                            __ZN4chip11DeviceLayer8Internal11PosixConfig23kConfigKey_FabricSecretE,
                            __ZN4chip11DeviceLayer8Internal11PosixConfig23kConfigKey_SetupPinCodeE,
                            __ZN4chip11DeviceLayer8Internal11PosixConfig24kConfigKey_FailSafeArmedE,
                            __ZN4chip11DeviceLayer8Internal11PosixConfig24kConfigKey_GroupKeyIndexE,
                            __ZN4chip11DeviceLayer8Internal11PosixConfig24kConfigKey_MfrDeviceCertE,
                            __ZN4chip11DeviceLayer8Internal11PosixConfig24kConfigKey_ServiceConfigE,
                            __ZN4chip11DeviceLayer8Internal11PosixConfig26kConfigKey_PairedAccountIdE,
                            __ZN4chip11DeviceLayer8Internal11PosixConfig26kConfigKey_ProductRevisionE,
                            __ZN4chip11DeviceLayer8Internal11PosixConfig27kConfigNamespace_ChipConfigE,
                            __ZN4chip11DeviceLayer8Internal11PosixConfig28kConfigKey_ManufacturingDateE,
                            __ZN4chip11DeviceLayer8Internal11PosixConfig28kConfigKey_MfrDeviceICACertsE,
                            __ZN4chip11DeviceLayer8Internal11PosixConfig28kConfigNamespace_ChipFactoryE,
                            __ZN4chip11DeviceLayer8Internal11PosixConfig29kConfigKey_LastUsedEpochKeyIdE,
                            __ZN4chip11DeviceLayer8Internal11PosixConfig29kConfigKey_RegulatoryLocationE,
                            __ZN4chip11DeviceLayer8Internal11PosixConfig29kConfigKey_SetupDiscriminatorE,
                            __ZN4chip11DeviceLayer8Internal11PosixConfig29kConfigKey_WiFiStationSecTypeE,
                            __ZN4chip11DeviceLayer8Internal11PosixConfig29kConfigNamespace_ChipCountersE,
                            __ZN4chip11DeviceLayer8Internal11PosixConfig30kConfigKey_MfrDevicePrivateKeyE,
                            __ZN4chip11DeviceLayer8Internal11PosixConfig30kConfigKey_OperationalDeviceIdE,
                            __ZN4chip11DeviceLayer8Internal11PosixConfig32kConfigKey_OperationalDeviceCertE,
                            __ZN4chip11DeviceLayer8Internal11PosixConfig36kConfigKey_OperationalDeviceICACertsE,
                            __ZN4chip11DeviceLayer8Internal11PosixConfig38kConfigKey_OperationalDevicePrivateKeyE,
                            __ZN4chip11DeviceLayer8Internal11PosixConfig4InitEv,
                            __ZN4chip11DeviceLayer8Internal14BLEManagerImpl12_GetBleLayerEv,
                            __ZN4chip11DeviceLayer8Internal14BLEManagerImpl14_GetDeviceNameEPcm,
                            __ZN4chip11DeviceLayer8Internal14BLEManagerImpl14_IsAdvertisingEv,
                            __ZN4chip11DeviceLayer8Internal14BLEManagerImpl14_SetDeviceNameEPKc,
                            __ZN4chip11DeviceLayer8Internal14BLEManagerImpl15_NumConnectionsEv,
                            __ZN4chip11DeviceLayer8Internal14BLEManagerImpl16_OnPlatformEventEPKNS0_15ChipDeviceEventE,
                            __ZN4chip11DeviceLayer8Internal14BLEManagerImpl19_SetAdvertisingModeENS0_19ConnectivityManager18BLEAdvertisingModeE,
                            __ZN4chip11DeviceLayer8Internal14BLEManagerImpl21_IsAdvertisingEnabledEv,
                            __ZN4chip11DeviceLayer8Internal14BLEManagerImpl22_SetAdvertisingEnabledEb,
                            __ZN4chip11DeviceLayer8Internal14BLEManagerImpl23_GetCHIPoBLEServiceModeEv,
                            __ZN4chip11DeviceLayer8Internal14BLEManagerImpl23_SetCHIPoBLEServiceModeENS0_19ConnectivityManager19CHIPoBLEServiceModeE,
                            __ZN4chip11DeviceLayer8Internal14BLEManagerImpl5_InitEv,
                            __ZN4chip11DeviceLayer8Internal14BLEManagerImpl9sInstanceE,
                            __ZN4chip11DeviceLayer8Internal23BlePlatformDelegateImpl14SendIndicationEPvPKNS_3Ble11ChipBleUUIDES7_NS_6System18PacketBufferHandleE,
                            __ZN4chip11DeviceLayer8Internal23BlePlatformDelegateImpl15CloseConnectionEPv,
                            __ZN4chip11DeviceLayer8Internal23BlePlatformDelegateImpl15SendReadRequestEPvPKNS_3Ble11ChipBleUUIDES7_NS_6System18PacketBufferHandleE,
                            __ZN4chip11DeviceLayer8Internal23BlePlatformDelegateImpl16SendReadResponseEPvS3_PKNS_3Ble11ChipBleUUIDES7_,
                            __ZN4chip11DeviceLayer8Internal23BlePlatformDelegateImpl16SendWriteRequestEPvPKNS_3Ble11ChipBleUUIDES7_NS_6System18PacketBufferHandleE,
                            __ZN4chip11DeviceLayer8Internal23BlePlatformDelegateImpl23SubscribeCharacteristicEPvPKNS_3Ble11ChipBleUUIDES7_,
                            __ZN4chip11DeviceLayer8Internal23BlePlatformDelegateImpl25UnsubscribeCharacteristicEPvPKNS_3Ble11ChipBleUUIDES7_,
                            __ZN4chip11DeviceLayer8Internal25BleConnectionDelegateImpl13NewConnectionEPNS_3Ble8BleLayerEPvt,
                            __ZN4chip11DeviceLayer8Internal25BleConnectionDelegateImpl16CancelConnectionEv,
                            __ZN4chip11DeviceLayer8Internal26BleApplicationDelegateImpl26NotifyChipConnectionClosedEPv,
                            __ZN4chip11DeviceLayer8Internal3TAGE,
                            __ZN4chip11DeviceLayer8Internal3bleE,
                            __ZN4chip11DeviceLayer9InetLayerE,
                            __ZN4chip11FormatErrorEPctPKciS2_,
                            __ZN4chip11IsVendorTagEh,
                            __ZN4chip11PASESession10HandleMsg3ERKNS_6System18PacketBufferHandleE,
                            __ZN4chip11PASESession11DeserializeERNS_21PASESessionSerializedE,
                            __ZN4chip11PASESession12SendErrorMsgENS0_16Spake2pErrorTypeE,
                            __ZN4chip11PASESession12SetupSpake2pEjPKhm,
                            __ZN4chip11PASESession13CloseExchangeEv,
                            __ZN4chip11PASESession14HandleErrorMsgERKNS_6System18PacketBufferHandleE,
                            __ZN4chip11PASESession14ToSerializableERNS_23PASESessionSerializableE,
                            __ZN4chip11PASESession14WaitForPairingERA2_A40_KhtPNS_28SessionEstablishmentDelegateE,
                            __ZN4chip11PASESession14WaitForPairingEjjPKhmtPNS_28SessionEstablishmentDelegateE,
                            __ZN4chip11PASESession16FromSerializableERKNS_23PASESessionSerializableE,
                            __ZN4chip11PASESession17OnMessageReceivedEPNS_9Messaging15ExchangeContextERKNS_12PacketHeaderERKNS_13PayloadHeaderEONS_6System18PacketBufferHandleE,
                            __ZN4chip11PASESession17OnResponseTimeoutEPNS_9Messaging15ExchangeContextE,
                            __ZN4chip11PASESession19ComputePASEVerifierEjjPKhmRA2_A40_h,
                            __ZN4chip11PASESession19DeriveSecureSessionERNS_13SecureSessionENS1_11SessionRoleE,
                            __ZN4chip11PASESession20GeneratePASEVerifierERA2_A40_hbRj,
                            __ZN4chip11PASESession21SendPBKDFParamRequestEv,
                            __ZN4chip11PASESession22SendPBKDFParamResponseEv,
                            __ZN4chip11PASESession23HandleMsg1_and_SendMsg2ERKNS_6System18PacketBufferHandleE,
                            __ZN4chip11PASESession23HandleMsg2_and_SendMsg3ERKNS_6System18PacketBufferHandleE,
                            __ZN4chip11PASESession23HandlePBKDFParamRequestERKNS_6System18PacketBufferHandleE,
                            __ZN4chip11PASESession23ValidateReceivedMessageEPNS_9Messaging15ExchangeContextERKNS_12PacketHeaderERKNS_13PayloadHeaderEONS_6System18PacketBufferHandleE,
                            __ZN4chip11PASESession24HandlePBKDFParamResponseERKNS_6System18PacketBufferHandleE,
                            __ZN4chip11PASESession4InitEtjPNS_28SessionEstablishmentDelegateE,
                            __ZN4chip11PASESession4PairENS_9Transport11PeerAddressEjtPNS_9Messaging15ExchangeContextEPNS_28SessionEstablishmentDelegateE,
                            __ZN4chip11PASESession5ClearEv,
                            __ZN4chip11PASESession8SendMsg1Ev,
                            __ZN4chip11PASESession9SerializeERNS_21PASESessionSerializedE,
                            __ZN4chip11PASESessionC1Ev,
                            __ZN4chip11PASESessionC2Ev,
                            __ZN4chip11PASESessionD0Ev,
                            __ZN4chip11PASESessionD1Ev,
                            __ZN4chip11PASESessionD2Ev,
                            __ZN4chip12Base64DecodeEPKctPh,
                            __ZN4chip12Base64DecodeEPKctPhPFhhE,
                            __ZN4chip12Base64EncodeEPKhtPc,
                            __ZN4chip12Base64EncodeEPKhtPcPFchE,
                            __ZN4chip12PacketHeader16DecodeAndConsumeERKNS_6System18PacketBufferHandleE,
                            __ZN4chip12PacketHeader6DecodeEPKhtPt,
                            __ZN4chip12SetupPayload15addSerialNumberENSt3__112basic_stringIcNS1_11char_traitsIcEENS1_9allocatorIcEEEE,
                            __ZN4chip12SetupPayload15addSerialNumberEj,
                            __ZN4chip12SetupPayload17getNumericTypeForEh,
                            __ZN4chip12SetupPayload17isValidManualCodeEv,
                            __ZN4chip12SetupPayload18removeSerialNumberEv,
                            __ZN4chip12SetupPayload20isValidQRCodePayloadEv,
                            __ZN4chip12SetupPayload21addOptionalVendorDataERKNS_18OptionalQRCodeInfoE,
                            __ZN4chip12SetupPayload21addOptionalVendorDataEhNSt3__112basic_stringIcNS1_11char_traitsIcEENS1_9allocatorIcEEEE,
                            __ZN4chip12SetupPayload21addOptionalVendorDataEhi,
                            __ZN4chip12SetupPayload21getOptionalVendorDataEhRNS_18OptionalQRCodeInfoE,
                            __ZN4chip12SetupPayload24addOptionalExtensionDataERKNS_27OptionalQRCodeInfoExtensionE,
                            __ZN4chip12SetupPayload24removeOptionalVendorDataEh,
                            __ZN4chip12SetupPayload27getAllOptionalExtensionDataEv,
                            __ZN4chip12SetupPayloadeqERS0_,
                            __ZN4chip12base38DecodeENSt3__112basic_stringIcNS0_11char_traitsIcEENS0_9allocatorIcEEEERNS0_6vectorIhNS4_IhEEEE,
                            __ZN4chip12base38EncodeEPKhm,
                            __ZN4chip13PayloadHeader16DecodeAndConsumeERKNS_6System18PacketBufferHandleE,
                            __ZN4chip13PayloadHeader6DecodeEPKhtPt,
                            __ZN4chip13SecureSession14InitFromSecretERKNS_4SpanIhEES4_NS0_15SessionInfoTypeENS0_11SessionRoleE,
                            __ZN4chip13SecureSession21GetAdditionalAuthDataERKNS_12PacketHeaderEPhRt,
                            __ZN4chip13SecureSession4InitERKNS_6Crypto11P256KeypairERKNS1_13P256PublicKeyERKNS_4SpanIhEENS0_15SessionInfoTypeENS0_11SessionRoleE,
                            __ZN4chip13SecureSession5GetIVERKNS_12PacketHeaderEPhm,
                            __ZN4chip13SecureSession5ResetEv,
                            __ZN4chip13SecureSessionC1Ev,
                            __ZN4chip13SecureSessionC2Ev,
                            __ZN4chip14Base64Decode32EPKcjPh,
                            __ZN4chip14Base64Decode32EPKcjPhPFhhE,
                            __ZN4chip14Base64Encode32EPKhjPc,
                            __ZN4chip14Base64Encode32EPKhjPcPFchE,
                            __ZN4chip14secure_channel21MessageCounterManager17AddToReceiveTableERKNS_12PacketHeaderERKNS_9Transport11PeerAddressEONS_6System18PacketBufferHandleE,
                            __ZN4chip14secure_channel21MessageCounterManager17OnMessageReceivedEPNS_9Messaging15ExchangeContextERKNS_12PacketHeaderERKNS_13PayloadHeaderEONS_6System18PacketBufferHandleE,
                            __ZN4chip14secure_channel21MessageCounterManager17OnResponseTimeoutEPNS_9Messaging15ExchangeContextE,
                            __ZN4chip14secure_channel21MessageCounterManager21SendMsgCounterSyncReqENS_19SecureSessionHandleEPNS_9Transport19PeerConnectionStateE,
                            __ZN4chip14secure_channel21MessageCounterManager22ProcessPendingMessagesEy,
                            __ZN4chip14secure_channel21MessageCounterManager22SendMsgCounterSyncRespEPNS_9Messaging15ExchangeContextENS_9FixedSpanIhLm8EEE,
                            __ZN4chip14secure_channel21MessageCounterManager23HandleMsgCounterSyncReqEPNS_9Messaging15ExchangeContextERKNS_12PacketHeaderEONS_6System18PacketBufferHandleE,
                            __ZN4chip14secure_channel21MessageCounterManager24HandleMsgCounterSyncRespEPNS_9Messaging15ExchangeContextERKNS_12PacketHeaderEONS_6System18PacketBufferHandleE,
                            __ZN4chip14secure_channel21MessageCounterManager32QueueReceivedMessageAndStartSyncERKNS_12PacketHeaderENS_19SecureSessionHandleEPNS_9Transport19PeerConnectionStateERKNS6_11PeerAddressEONS_6System18PacketBufferHandleE,
                            __ZN4chip14secure_channel21MessageCounterManager4InitEPNS_9Messaging15ExchangeManagerE,
                            __ZN4chip14secure_channel21MessageCounterManager8ShutdownEv,
                            __ZN4chip14secure_channel21MessageCounterManager9StartSyncENS_19SecureSessionHandleEPNS_9Transport19PeerConnectionStateE,
                            __ZN4chip15Base64URLDecodeEPKctPh,
                            __ZN4chip15Base64URLEncodeEPKhtPc,
                            __ZN4chip15ExchangeManagerEv,
                            __ZN4chip15FormatCHIPErrorEPcti,
                            __ZN4chip15kSpake2pContextE,
                            __ZN4chip16PersistedCounter14ReadStartValueERj,
                            __ZN4chip16PersistedCounter21PersistNextEpochStartEj,
                            __ZN4chip16PersistedCounter4InitEPKcj,
                            __ZN4chip16PersistedCounter7AdvanceEv,
                            __ZN4chip16PersistedCounterC1Ev,
                            __ZN4chip16PersistedCounterC2Ev,
                            __ZN4chip16PersistedCounterD0Ev,
                            __ZN4chip16PersistedCounterD1Ev,
                            __ZN4chip16PersistedCounterD2Ev,
                            __ZN4chip16SecureSessionMgr10NewPairingERKNS_8OptionalINS_9Transport11PeerAddressEEEyPNS_14PairingSessionENS_13SecureSession11SessionRoleEtPNS2_4BaseE,
                            __ZN4chip16SecureSessionMgr11SendMessageENS_19SecureSessionHandleERNS_13PayloadHeaderEONS_6System18PacketBufferHandleEPNS_27EncryptedPacketBufferHandleE,
                            __ZN4chip16SecureSessionMgr11SendMessageENS_19SecureSessionHandleERNS_13PayloadHeaderERNS_12PacketHeaderEONS_6System18PacketBufferHandleEPNS_27EncryptedPacketBufferHandleENS0_15EncryptionStateE,
                            __ZN4chip16SecureSessionMgr15MessageDispatchERKNS_12PacketHeaderERKNS_9Transport11PeerAddressEONS_6System18PacketBufferHandleE,
                            __ZN4chip16SecureSessionMgr16GetTransportTypeEy,
                            __ZN4chip16SecureSessionMgr17CancelExpiryTimerEv,
                            __ZN4chip16SecureSessionMgr17OnMessageReceivedERKNS_9Transport11PeerAddressEONS_6System18PacketBufferHandleE,
                            __ZN4chip16SecureSessionMgr19ExpiryTimerCallbackEPNS_6System5LayerEPvi,
                            __ZN4chip16SecureSessionMgr19ScheduleExpiryTimerEv,
                            __ZN4chip16SecureSessionMgr20SendEncryptedMessageENS_19SecureSessionHandleEONS_27EncryptedPacketBufferHandleEPS2_,
                            __ZN4chip16SecureSessionMgr21SecureMessageDispatchERKNS_12PacketHeaderERKNS_9Transport11PeerAddressEONS_6System18PacketBufferHandleE,
                            __ZN4chip16SecureSessionMgr22GetPeerConnectionStateENS_19SecureSessionHandleE,
                            __ZN4chip16SecureSessionMgr23HandleConnectionExpiredERKNS_9Transport19PeerConnectionStateE,
                            __ZN4chip16SecureSessionMgr4InitEyPNS_6System5LayerEPNS_16TransportMgrBaseEPNS_9Transport17AdminPairingTableEPNS6_30MessageCounterManagerInterfaceE,
                            __ZN4chip16SecureSessionMgr8ShutdownEv,
                            __ZN4chip16SecureSessionMgrC1Ev,
                            __ZN4chip16SecureSessionMgrC2Ev,
                            __ZN4chip16SecureSessionMgrD0Ev,
                            __ZN4chip16SecureSessionMgrD1Ev,
                            __ZN4chip16SecureSessionMgrD2Ev,
                            __ZN4chip16TransportMgrBase10DisconnectERKNS_9Transport11PeerAddressE,
                            __ZN4chip16TransportMgrBase11SendMessageERKNS_9Transport11PeerAddressEONS_6System18PacketBufferHandleE,
                            __ZN4chip16TransportMgrBase21HandleMessageReceivedERKNS_9Transport11PeerAddressEONS_6System18PacketBufferHandleE,
                            __ZN4chip16TransportMgrBase4InitEPNS_9Transport4BaseE,
                            __ZN4chip16TransportMgrBase5CloseEv,
                            __ZN4chip18AdjustCalendarDateERtRhS1_i,
                            __ZN4chip18FirstWeekdayOfYearEt,
                            __ZN4chip18SecureMessageCodec6DecodeEPNS_9Transport19PeerConnectionStateERNS_13PayloadHeaderERKNS_12PacketHeaderERNS_6System18PacketBufferHandleE,
                            __ZN4chip18SecureMessageCodec6EncodeEyPNS_9Transport19PeerConnectionStateERNS_13PayloadHeaderERNS_12PacketHeaderERNS_6System18PacketBufferHandleERNS_14MessageCounterE,
                            __ZN4chip21StaticAllocatorBitmap10DeallocateEPv,
                            __ZN4chip21StaticAllocatorBitmap8AllocateEv,
                            __ZN4chip21StaticAllocatorBitmapC1EPvPNSt3__16atomicImEEmm,
                            __ZN4chip21StaticAllocatorBitmapC2EPvPNSt3__16atomicImEEmm,
                            __ZN4chip22RegisterErrorFormatterEPNS_14ErrorFormatterE,
                            __ZN4chip22SerializableU64SetBase11DeserializeENS_4SpanIhEE,
                            __ZN4chip22SerializableU64SetBase21SwapByteOrderIfNeededEv,
                            __ZN4chip22SerializableU64SetBase25FirstAvailableForUniqueIdEy,
                            __ZN4chip22SerializableU64SetBase6InsertEy,
                            __ZN4chip22SerializableU64SetBase6RemoveEy,
                            __ZN4chip22SerializableU64SetBase9FindIndexEy,
                            __ZN4chip22kSpake2pI2RSessionInfoE,
                            __ZN4chip22kSpake2pR2ISessionInfoE,
                            __ZN4chip23CalendarToChipEpochTimeEthhhhhRj,
                            __ZN4chip23ChipEpochToCalendarTimeEjRtRhS1_S1_S1_S1_,
                            __ZN4chip24DeregisterErrorFormatterEPNS_14ErrorFormatterE,
                            __ZN4chip24LifetimePersistedCounter14ReadStartValueERj,
                            __ZN4chip24LifetimePersistedCounter4InitEPKc,
                            __ZN4chip24LifetimePersistedCounter7AdvanceEv,
                            __ZN4chip24LifetimePersistedCounterC1Ev,
                            __ZN4chip24LifetimePersistedCounterC2Ev,
                            __ZN4chip24LifetimePersistedCounterD0Ev,
                            __ZN4chip24LifetimePersistedCounterD1Ev,
                            __ZN4chip24LifetimePersistedCounterD2Ev,
                            __ZN4chip24ManualSetupPayloadParser15populatePayloadERNS_12SetupPayloadE,
                            __ZN4chip24QRCodeSetupPayloadParser11populateTLVERNS_12SetupPayloadERKNSt3__16vectorIhNS3_9allocatorIhEEEERm,
                            __ZN4chip24QRCodeSetupPayloadParser14parseTLVFieldsERNS_12SetupPayloadEPhm,
                            __ZN4chip24QRCodeSetupPayloadParser15populatePayloadERNS_12SetupPayloadE,
                            __ZN4chip24QRCodeSetupPayloadParser21retrieveOptionalInfosERNS_12SetupPayloadERNS_3TLV9TLVReaderE,
                            __ZN4chip24UnixEpochToChipEpochTimeEjRj,
                            __ZN4chip25CalendarDateToOrdinalDateEthhRt,
                            __ZN4chip25MessageAuthenticationCode23TagLenForEncryptionTypeENS_6Header14EncryptionTypeE,
                            __ZN4chip25MessageAuthenticationCode6DecodeERKNS_12PacketHeaderEPKhtPt,
                            __ZN4chip25OrdinalDateToCalendarDateEttRhS0_,
                            __ZN4chip27ManualSetupPayloadGenerator34payloadDecimalStringRepresentationERNSt3__112basic_stringIcNS1_11char_traitsIcEENS1_9allocatorIcEEEE,
                            __ZN4chip28CalendarDateToDaysSinceEpochEthhRj,
                            __ZN4chip28DaysSinceEpochToCalendarDateEjRtRhS1_,
                            __ZN4chip29GlobalEncryptedMessageCounter4InitEv,
                            __ZN4chip30MonotonicallyIncreasingCounter4InitEj,
                            __ZN4chip30MonotonicallyIncreasingCounter7AdvanceEv,
                            __ZN4chip30MonotonicallyIncreasingCounter8GetValueEv,
                            __ZN4chip30MonotonicallyIncreasingCounterC1Ev,
                            __ZN4chip30MonotonicallyIncreasingCounterC2Ev,
                            __ZN4chip30MonotonicallyIncreasingCounterD0Ev,
                            __ZN4chip30MonotonicallyIncreasingCounterD1Ev,
                            __ZN4chip30MonotonicallyIncreasingCounterD2Ev,
                            __ZN4chip31CalendarTimeToSecondsSinceEpochEthhhhhRj,
                            __ZN4chip31GlobalUnencryptedMessageCounterC1Ev,
                            __ZN4chip31GlobalUnencryptedMessageCounterC2Ev,
                            __ZN4chip31RegisterCHIPLayerErrorFormatterEv,
                            __ZN4chip31SecondsSinceEpochToCalendarTimeEjRtRhS1_S1_S1_S1_,
                            __ZN4chip36SessionEstablishmentExchangeDispatch15SendMessageImplENS_19SecureSessionHandleERNS_13PayloadHeaderEONS_6System18PacketBufferHandleEPNS_27EncryptedPacketBufferHandleE,
                            __ZN4chip36SessionEstablishmentExchangeDispatch16MessagePermittedEth,
                            __ZN4chip36SessionEstablishmentExchangeDispatch17OnMessageReceivedERKNS_13PayloadHeaderEjRKNS_9Transport11PeerAddressEPNS_9Messaging22ReliableMessageContextE,
                            __ZN4chip3Ble10UUIDsMatchEPKNS0_11ChipBleUUIDES3_,
                            __ZN4chip3Ble11BLEEndPoint12DriveSendingEv,
                            __ZN4chip3Ble11BLEEndPoint12StartConnectEv,
                            __ZN4chip3Ble11BLEEndPoint13FinalizeCloseEhhi,
                            __ZN4chip3Ble11BLEEndPoint13FreeBtpEngineEv,
                            __ZN4chip3Ble11BLEEndPoint14SendIndicationEONS_6System18PacketBufferHandleE,
                            __ZN4chip3Ble11BLEEndPoint15DoCloseCallbackEhhi,
                            __ZN4chip3Ble11BLEEndPoint15SendNextMessageEv,
                            __ZN4chip3Ble11BLEEndPoint16StopConnectTimerEv,
                            __ZN4chip3Ble11BLEEndPoint16StopSendAckTimerEv,
                            __ZN4chip3Ble11BLEEndPoint17StartConnectTimerEv,
                            __ZN4chip3Ble11BLEEndPoint17StartSendAckTimerEv,
                            __ZN4chip3Ble11BLEEndPoint18DriveStandAloneAckEv,
                            __ZN4chip3Ble11BLEEndPoint18SendCharacteristicEONS_6System18PacketBufferHandleE,
                            __ZN4chip3Ble11BLEEndPoint19ContinueMessageSendEv,
                            __ZN4chip3Ble11BLEEndPoint19DoSendStandAloneAckEv,
                            __ZN4chip3Ble11BLEEndPoint19PrepareNextFragmentEONS_6System18PacketBufferHandleERb,
                            __ZN4chip3Ble11BLEEndPoint20HandleConnectTimeoutEPNS_6System5LayerEPvi,
                            __ZN4chip3Ble11BLEEndPoint20HandleSendAckTimeoutEPNS_6System5LayerEPvi,
                            __ZN4chip3Ble11BLEEndPoint20ReleaseBleConnectionEv,
                            __ZN4chip3Ble11BLEEndPoint20StopAckReceivedTimerEv,
                            __ZN4chip3Ble11BLEEndPoint20StopUnsubscribeTimerEv,
                            __ZN4chip3Ble11BLEEndPoint21HandleConnectCompleteEv,
                            __ZN4chip3Ble11BLEEndPoint21StartAckReceivedTimerEv,
                            __ZN4chip3Ble11BLEEndPoint21StartUnsubscribeTimerEv,
                            __ZN4chip3Ble11BLEEndPoint23HandleSubscribeCompleteEv,
                            __ZN4chip3Ble11BLEEndPoint23HandleSubscribeReceivedEv,
                            __ZN4chip3Ble11BLEEndPoint23RestartAckReceivedTimerEv,
                            __ZN4chip3Ble11BLEEndPoint24HandleAckReceivedTimeoutEPNS_6System5LayerEPvi,
                            __ZN4chip3Ble11BLEEndPoint24HandleUnsubscribeTimeoutEPNS_6System5LayerEPvi,
                            __ZN4chip3Ble11BLEEndPoint25AdjustRemoteReceiveWindowEhhh,
                            __ZN4chip3Ble11BLEEndPoint25HandleUnsubscribeCompleteEv,
                            __ZN4chip3Ble11BLEEndPoint26StopReceiveConnectionTimerEv,
                            __ZN4chip3Ble11BLEEndPoint27StartReceiveConnectionTimerEv,
                            __ZN4chip3Ble11BLEEndPoint30HandleReceiveConnectionTimeoutEPNS_6System5LayerEPvi,
                            __ZN4chip3Ble11BLEEndPoint31HandleReceiveConnectionCompleteEv,
                            __ZN4chip3Ble11BLEEndPoint33HandleCapabilitiesRequestReceivedEONS_6System18PacketBufferHandleE,
                            __ZN4chip3Ble11BLEEndPoint34HandleCapabilitiesResponseReceivedEONS_6System18PacketBufferHandleE,
                            __ZN4chip3Ble11BLEEndPoint34HandleFragmentConfirmationReceivedEv,
                            __ZN4chip3Ble11BLEEndPoint34HandleGattSendConfirmationReceivedEv,
                            __ZN4chip3Ble11BLEEndPoint35HandleHandshakeConfirmationReceivedEv,
                            __ZN4chip3Ble11BLEEndPoint4FreeEv,
                            __ZN4chip3Ble11BLEEndPoint4InitEPNS0_8BleLayerEPvNS0_7BleRoleEb,
                            __ZN4chip3Ble11BLEEndPoint4SendEONS_6System18PacketBufferHandleE,
                            __ZN4chip3Ble11BLEEndPoint5AbortEv,
                            __ZN4chip3Ble11BLEEndPoint5CloseEv,
                            __ZN4chip3Ble11BLEEndPoint7DoCloseEhi,
                            __ZN4chip3Ble11BLEEndPoint7QueueTxEONS_6System18PacketBufferHandleENS0_12PacketType_tE,
                            __ZN4chip3Ble11BLEEndPoint7ReceiveEONS_6System18PacketBufferHandleE,
                            __ZN4chip3Ble11BLEEndPoint7ReleaseEv,
                            __ZN4chip3Ble11BLEEndPoint9SendWriteEONS_6System18PacketBufferHandleE,
                            __ZN4chip3Ble12StringToUUIDEPKcRNS0_11ChipBleUUIDE,
                            __ZN4chip3Ble15CHIP_BLE_SVC_IDE,
                            __ZN4chip3Ble16FormatLayerErrorEPcti,
                            __ZN4chip3Ble27RegisterLayerErrorFormatterEv,
                            __ZN4chip3Ble38BleTransportCapabilitiesRequestMessage27SetSupportedProtocolVersionEhh,
                            __ZN4chip3Ble38BleTransportCapabilitiesRequestMessage6DecodeERKNS_6System18PacketBufferHandleERS1_,
                            __ZN4chip3Ble39BleTransportCapabilitiesResponseMessage6DecodeERKNS_6System18PacketBufferHandleERS1_,
                            __ZN4chip3Ble8BleLayer14NewBleEndPointEPPNS0_11BLEEndPointEPvNS0_7BleRoleEb,
                            __ZN4chip3Ble8BleLayer17HandleAckReceivedEPv,
                            __ZN4chip3Ble8BleLayer17OnConnectionErrorEPvi,
                            __ZN4chip3Ble8BleLayer18CHIP_BLE_CHAR_1_IDE,
                            __ZN4chip3Ble8BleLayer18CHIP_BLE_CHAR_2_IDE,
                            __ZN4chip3Ble8BleLayer18CHIP_BLE_CHAR_3_IDE,
                            __ZN4chip3Ble8BleLayer18CloseBleConnectionEPv,
                            __ZN4chip3Ble8BleLayer19HandleWriteReceivedEPvPKNS0_11ChipBleUUIDES5_ONS_6System18PacketBufferHandleE,
                            __ZN4chip3Ble8BleLayer20OnConnectionCompleteEPvS2_,
                            __ZN4chip3Ble8BleLayer21HandleConnectionErrorEPvi,
                            __ZN4chip3Ble8BleLayer22CloseAllBleConnectionsEv,
                            __ZN4chip3Ble8BleLayer23HandleSubscribeCompleteEPvPKNS0_11ChipBleUUIDES5_,
                            __ZN4chip3Ble8BleLayer23HandleSubscribeReceivedEPvPKNS0_11ChipBleUUIDES5_,
                            __ZN4chip3Ble8BleLayer23HandleWriteConfirmationEPvPKNS0_11ChipBleUUIDES5_,
                            __ZN4chip3Ble8BleLayer24HandleIndicationReceivedEPvPKNS0_11ChipBleUUIDES5_ONS_6System18PacketBufferHandleE,
                            __ZN4chip3Ble8BleLayer24NewBleConnectionByObjectEPv,
                            __ZN4chip3Ble8BleLayer25HandleUnsubscribeCompleteEPvPKNS0_11ChipBleUUIDES5_,
                            __ZN4chip3Ble8BleLayer25HandleUnsubscribeReceivedEPvPKNS0_11ChipBleUUIDES5_,
                            __ZN4chip3Ble8BleLayer28HandleIndicationConfirmationEPvPKNS0_11ChipBleUUIDES5_,
                            __ZN4chip3Ble8BleLayer29CancelBleIncompleteConnectionEv,
                            __ZN4chip3Ble8BleLayer31NewBleConnectionByDiscriminatorEt,
                            __ZN4chip3Ble8BleLayer34GetHighestSupportedProtocolVersionERKNS0_38BleTransportCapabilitiesRequestMessageE,
                            __ZN4chip3Ble8BleLayer37HandleBleTransportConnectionInitiatedEPvONS_6System18PacketBufferHandleE,
                            __ZN4chip3Ble8BleLayer4InitEPNS0_19BlePlatformDelegateEPNS0_21BleConnectionDelegateEPNS0_22BleApplicationDelegateEPNS_6System5LayerE,
                            __ZN4chip3Ble8BleLayer4InitEPNS0_19BlePlatformDelegateEPNS0_22BleApplicationDelegateEPNS_6System5LayerE,
                            __ZN4chip3Ble8BleLayer8ShutdownEv,
                            __ZN4chip3Ble8BleLayerC1Ev,
                            __ZN4chip3Ble8BleLayerC2Ev,
                            __ZN4chip3Ble9BtpEngine12TakeRxPacketEv,
                            __ZN4chip3Ble9BtpEngine12TakeTxPacketEv,
                            __ZN4chip3Ble9BtpEngine16sMaxFragmentSizeE,
                            __ZN4chip3Ble9BtpEngine17HandleAckReceivedEh,
                            __ZN4chip3Ble9BtpEngine19EncodeStandAloneAckERKNS_6System18PacketBufferHandleE,
                            __ZN4chip3Ble9BtpEngine20sDefaultFragmentSizeE,
                            __ZN4chip3Ble9BtpEngine23GetAndRecordRxAckSeqNumEv,
                            __ZN4chip3Ble9BtpEngine24HandleCharacteristicSendENS_6System18PacketBufferHandleEb,
                            __ZN4chip3Ble9BtpEngine27GetAndIncrementNextTxSeqNumEv,
                            __ZN4chip3Ble9BtpEngine28HandleCharacteristicReceivedEONS_6System18PacketBufferHandleERhRb,
                            __ZN4chip3Ble9BtpEngine4InitEPvb,
                            __ZN4chip3TLV21CHIPCircularTLVBuffer12GetNewBufferERNS0_9TLVWriterERPhRj,
                            __ZN4chip3TLV21CHIPCircularTLVBuffer13GetNextBufferERNS0_9TLVReaderERPKhRj,
                            __ZN4chip3TLV21CHIPCircularTLVBuffer14FinalizeBufferERNS0_9TLVWriterEPhj,
                            __ZN4chip3TLV21CHIPCircularTLVBuffer4InitEPhj,
                            __ZN4chip3TLV21CHIPCircularTLVBuffer6OnInitERNS0_9TLVReaderERPKhRj,
                            __ZN4chip3TLV21CHIPCircularTLVBuffer6OnInitERNS0_9TLVWriterERPhRj,
                            __ZN4chip3TLV21CHIPCircularTLVBuffer9EvictHeadEv,
                            __ZN4chip3TLV21CHIPCircularTLVBufferC1EPhj,
                            __ZN4chip3TLV21CHIPCircularTLVBufferC1EPhjS2_,
                            __ZN4chip3TLV21CHIPCircularTLVBufferC2EPhj,
                            __ZN4chip3TLV21CHIPCircularTLVBufferC2EPhjS2_,
                            __ZN4chip3TLV9TLVReader10EnsureDataEi,
                            __ZN4chip3TLV9TLVReader10GetDataPtrERPKh,
                            __ZN4chip3TLV9TLVReader11ReadElementEv,
                            __ZN4chip3TLV9TLVReader13ExitContainerENS0_7TLVTypeE,
                            __ZN4chip3TLV9TLVReader13OpenContainerERS1_,
                            __ZN4chip3TLV9TLVReader13VerifyElementEv,
                            __ZN4chip3TLV9TLVReader14CloseContainerERS1_,
                            __ZN4chip3TLV9TLVReader14EnterContainerERNS0_7TLVTypeE,
                            __ZN4chip3TLV9TLVReader17ClearElementStateEv,
                            __ZN4chip3TLV9TLVReader20SkipToEndOfContainerEv,
                            __ZN4chip3TLV9TLVReader20VerifyEndOfContainerEv,
                            __ZN4chip3TLV9TLVReader3GetERa,
                            __ZN4chip3TLV9TLVReader3GetERb,
                            __ZN4chip3TLV9TLVReader3GetERd,
                            __ZN4chip3TLV9TLVReader3GetERh,
                            __ZN4chip3TLV9TLVReader3GetERi,
                            __ZN4chip3TLV9TLVReader3GetERj,
                            __ZN4chip3TLV9TLVReader3GetERs,
                            __ZN4chip3TLV9TLVReader3GetERt,
                            __ZN4chip3TLV9TLVReader3GetERx,
                            __ZN4chip3TLV9TLVReader3GetERy,
                            __ZN4chip3TLV9TLVReader4InitEPKhj,
                            __ZN4chip3TLV9TLVReader4InitERKS1_,
                            __ZN4chip3TLV9TLVReader4InitERNS0_15TLVBackingStoreEj,
                            __ZN4chip3TLV9TLVReader4NextENS0_7TLVTypeEy,
                            __ZN4chip3TLV9TLVReader4NextEv,
                            __ZN4chip3TLV9TLVReader4SkipEv,
                            __ZN4chip3TLV9TLVReader7ReadTagENS0_13TLVTagControlERPKh,
                            __ZN4chip3TLV9TLVReader8DupBytesERPhRj,
                            __ZN4chip3TLV9TLVReader8GetBytesEPhj,
                            __ZN4chip3TLV9TLVReader8ReadDataEPhj,
                            __ZN4chip3TLV9TLVReader8SkipDataEv,
                            __ZN4chip3TLV9TLVReader9DupStringERPc,
                            __ZN4chip3TLV9TLVReader9GetStringEPcj,
                            __ZN4chip3TLV9TLVWriter10PutBooleanEyb,
                            __ZN4chip3TLV9TLVWriter10PutStringFEyPKcz,
                            __ZN4chip3TLV9TLVWriter11CopyElementERNS0_9TLVReaderE,
                            __ZN4chip3TLV9TLVWriter11CopyElementEyRNS0_9TLVReaderE,
                            __ZN4chip3TLV9TLVWriter11VPutStringFEyPKcPc,
                            __ZN4chip3TLV9TLVWriter12EndContainerENS0_7TLVTypeE,
                            __ZN4chip3TLV9TLVWriter13CopyContainerERNS0_9TLVReaderE,
                            __ZN4chip3TLV9TLVWriter13CopyContainerEyPKht,
                            __ZN4chip3TLV9TLVWriter13CopyContainerEyRNS0_9TLVReaderE,
                            __ZN4chip3TLV9TLVWriter13OpenContainerEyNS0_7TLVTypeERS1_,
                            __ZN4chip3TLV9TLVWriter14CloseContainerERS1_,
                            __ZN4chip3TLV9TLVWriter14StartContainerEyNS0_7TLVTypeERS2_,
                            __ZN4chip3TLV9TLVWriter16WriteElementHeadENS0_14TLVElementTypeEyy,
                            __ZN4chip3TLV9TLVWriter20WriteElementWithDataENS0_7TLVTypeEyPKhj,
                            __ZN4chip3TLV9TLVWriter22PutPreEncodedContainerEyNS0_7TLVTypeEPKhj,
                            __ZN4chip3TLV9TLVWriter3PutEyNS_4SpanIhEE,
                            __ZN4chip3TLV9TLVWriter3PutEya,
                            __ZN4chip3TLV9TLVWriter3PutEyab,
                            __ZN4chip3TLV9TLVWriter3PutEyd,
                            __ZN4chip3TLV9TLVWriter3PutEyf,
                            __ZN4chip3TLV9TLVWriter3PutEyh,
                            __ZN4chip3TLV9TLVWriter3PutEyhb,
                            __ZN4chip3TLV9TLVWriter3PutEyi,
                            __ZN4chip3TLV9TLVWriter3PutEyib,
                            __ZN4chip3TLV9TLVWriter3PutEyj,
                            __ZN4chip3TLV9TLVWriter3PutEyjb,
                            __ZN4chip3TLV9TLVWriter3PutEys,
                            __ZN4chip3TLV9TLVWriter3PutEysb,
                            __ZN4chip3TLV9TLVWriter3PutEyt,
                            __ZN4chip3TLV9TLVWriter3PutEytb,
                            __ZN4chip3TLV9TLVWriter3PutEyx,
                            __ZN4chip3TLV9TLVWriter3PutEyxb,
                            __ZN4chip3TLV9TLVWriter3PutEyy,
                            __ZN4chip3TLV9TLVWriter3PutEyyb,
                            __ZN4chip3TLV9TLVWriter4InitEPhj,
                            __ZN4chip3TLV9TLVWriter4InitERNS0_15TLVBackingStoreEj,
                            __ZN4chip3TLV9TLVWriter7PutNullEy,
                            __ZN4chip3TLV9TLVWriter8FinalizeEv,
                            __ZN4chip3TLV9TLVWriter8PutBytesEyPKhj,
                            __ZN4chip3TLV9TLVWriter9PutStringEyPKc,
                            __ZN4chip3TLV9TLVWriter9PutStringEyPKcj,
                            __ZN4chip3TLV9TLVWriter9WriteDataEPKhj,
                            __ZN4chip3TLV9Utilities20FindPredicateContextC1ERNS0_9TLVReaderEPFiRKS3_mPvES7_,
                            __ZN4chip3TLV9Utilities20FindPredicateContextC2ERNS0_9TLVReaderEPFiRKS3_mPvES7_,
                            __ZN4chip3TLV9Utilities4FindERKNS0_9TLVReaderEPFiS4_mPvES5_RS2_,
                            __ZN4chip3TLV9Utilities4FindERKNS0_9TLVReaderEPFiS4_mPvES5_RS2_b,
                            __ZN4chip3TLV9Utilities4FindERKNS0_9TLVReaderERKyRS2_,
                            __ZN4chip3TLV9Utilities4FindERKNS0_9TLVReaderERKyRS2_b,
                            __ZN4chip3TLV9Utilities5CountERKNS0_9TLVReaderERm,
                            __ZN4chip3TLV9Utilities5CountERKNS0_9TLVReaderERmb,
                            __ZN4chip3TLV9Utilities7IterateERKNS0_9TLVReaderEPFiS4_mPvES5_,
                            __ZN4chip3TLV9Utilities7IterateERKNS0_9TLVReaderEPFiS4_mPvES5_b,
                            __ZN4chip3app10ListParser13InitIfPresentERKNS_3TLV9TLVReaderEh,
                            __ZN4chip3app10ListParser4InitERKNS_3TLV9TLVReaderE,
                            __ZN4chip3app10ListParser4NextEv,
                            __ZN4chip3app10ListParserC1Ev,
                            __ZN4chip3app10ListParserC2Ev,
                            __ZN4chip3app10ReadClient11MoveToStateENS1_11ClientStateE,
                            __ZN4chip3app10ReadClient15SendReadRequestEytPNS0_15EventPathParamsEmPNS0_19AttributePathParamsEmy,
                            __ZN4chip3app10ReadClient17OnMessageReceivedEPNS_9Messaging15ExchangeContextERKNS_12PacketHeaderERKNS_13PayloadHeaderEONS_6System18PacketBufferHandleE,
                            __ZN4chip3app10ReadClient17OnResponseTimeoutEPNS_9Messaging15ExchangeContextE,
                            __ZN4chip3app10ReadClient17ProcessReportDataEONS_6System18PacketBufferHandleE,
                            __ZN4chip3app10ReadClient24ProcessAttributeDataListERNS_3TLV9TLVReaderE,
                            __ZN4chip3app10ReadClient25GenerateAttributePathListERNS0_11ReadRequest7BuilderEPNS0_19AttributePathParamsEm,
                            __ZN4chip3app10ReadClient28AbortExistingExchangeContextEv,
                            __ZN4chip3app10ReadClient4InitEPNS_9Messaging15ExchangeManagerEPNS0_24InteractionModelDelegateE,
                            __ZN4chip3app10ReadClient8ShutdownEv,
                            __ZN4chip3app10ReportData6Parser4InitERKNS_3TLV9TLVReaderE,
                            __ZN4chip3app10ReportData7Builder14SubscriptionIdEy,
                            __ZN4chip3app10ReportData7Builder15EndOfReportDataEv,
                            __ZN4chip3app10ReportData7Builder16SuppressResponseEb,
                            __ZN4chip3app10ReportData7Builder19MoreChunkedMessagesEb,
                            __ZN4chip3app10ReportData7Builder26CreateEventDataListBuilderEv,
                            __ZN4chip3app10ReportData7Builder30CreateAttributeDataListBuilderEv,
                            __ZN4chip3app10ReportData7Builder4InitEPNS_3TLV9TLVWriterE,
                            __ZN4chip3app11CommandList7Builder16EndOfCommandListEv,
                            __ZN4chip3app11CommandList7Builder31CreateCommandDataElementBuilderEv,
                            __ZN4chip3app11CommandPath6Parser4InitERKNS_3TLV9TLVReaderE,
                            __ZN4chip3app11CommandPath7Builder10EndpointIdEh,
                            __ZN4chip3app11CommandPath7Builder16EndOfCommandPathEv,
                            __ZN4chip3app11CommandPath7Builder4InitEPNS_3TLV9TLVWriterE,
                            __ZN4chip3app11CommandPath7Builder4InitEPNS_3TLV9TLVWriterEh,
                            __ZN4chip3app11CommandPath7Builder5_InitEPNS_3TLV9TLVWriterEy,
                            __ZN4chip3app11CommandPath7Builder7GroupIdEt,
                            __ZN4chip3app11CommandPath7Builder9ClusterIdEt,
                            __ZN4chip3app11CommandPath7Builder9CommandIdEh,
                            __ZN4chip3app11ListBuilder4InitEPNS_3TLV9TLVWriterE,
                            __ZN4chip3app11ListBuilder4InitEPNS_3TLV9TLVWriterEh,
                            __ZN4chip3app11ListBuilderC1Ev,
                            __ZN4chip3app11ListBuilderC2Ev,
                            __ZN4chip3app11ReadHandler11MoveToStateENS1_12HandlerStateE,
                            __ZN4chip3app11ReadHandler13OnReadRequestEPNS_9Messaging15ExchangeContextEONS_6System18PacketBufferHandleE,
                            __ZN4chip3app11ReadHandler14SendReportDataEONS_6System18PacketBufferHandleE,
                            __ZN4chip3app11ReadHandler15CheckEventCleanERNS0_15EventManagementE,
                            __ZN4chip3app11ReadHandler18ProcessReadRequestEONS_6System18PacketBufferHandleE,
                            __ZN4chip3app11ReadHandler20ProcessEventPathListERNS0_13EventPathList6ParserE,
                            __ZN4chip3app11ReadHandler24ProcessAttributePathListERNS0_17AttributePathList6ParserE,
                            __ZN4chip3app11ReadHandler28AbortExistingExchangeContextEv,
                            __ZN4chip3app11ReadHandler32MoveToNextScheduledDirtyPriorityEv,
                            __ZN4chip3app11ReadHandler4InitEPNS0_24InteractionModelDelegateE,
                            __ZN4chip3app11ReadHandler8ShutdownEv,
                            __ZN4chip3app11ReadRequest6Parser4InitERKNS_3TLV9TLVReaderE,
                            __ZN4chip3app11ReadRequest7Builder11EventNumberEy,
                            __ZN4chip3app11ReadRequest7Builder16EndOfReadRequestEv,
                            __ZN4chip3app11ReadRequest7Builder26CreateEventPathListBuilderEv,
                            __ZN4chip3app11ReadRequest7Builder30CreateAttributePathListBuilderEv,
                            __ZN4chip3app11ReadRequest7Builder37CreateAttributeDataVersionListBuilderEv,
                            __ZN4chip3app11ReadRequest7Builder4InitEPNS_3TLV9TLVWriterE,
                            __ZN4chip3app13AttributePath6Parser4InitERKNS_3TLV9TLVReaderE,
                            __ZN4chip3app13AttributePath7Builder10EndpointIdEh,
                            __ZN4chip3app13AttributePath7Builder18EndOfAttributePathEv,
                            __ZN4chip3app13AttributePath7Builder4InitEPNS_3TLV9TLVWriterE,
                            __ZN4chip3app13AttributePath7Builder4InitEPNS_3TLV9TLVWriterEh,
                            __ZN4chip3app13AttributePath7Builder5_InitEPNS_3TLV9TLVWriterEy,
                            __ZN4chip3app13AttributePath7Builder6NodeIdEy,
                            __ZN4chip3app13AttributePath7Builder7FieldIdEh,
                            __ZN4chip3app13AttributePath7Builder9ClusterIdEt,
                            __ZN4chip3app13AttributePath7Builder9ListIndexEt,
                            __ZN4chip3app13CommandSender17OnMessageReceivedEPNS_9Messaging15ExchangeContextERKNS_12PacketHeaderERKNS_13PayloadHeaderEONS_6System18PacketBufferHandleE,
                            __ZN4chip3app13CommandSender17OnResponseTimeoutEPNS_9Messaging15ExchangeContextE,
                            __ZN4chip3app13CommandSender18SendCommandRequestEytPNS_19SecureSessionHandleE,
                            __ZN4chip3app13CommandSender25ProcessCommandDataElementERNS0_18CommandDataElement6ParserE,
                            __ZN4chip3app13Compatibility19ResetEmberAfObjectsEv,
                            __ZN4chip3app13Compatibility19SetupEmberAfObjectsEPNS0_7CommandEthh,
                            __ZN4chip3app13Compatibility40IMEmberAfSendDefaultResponseWithCallbackE13EmberAfStatus,
                            __ZN4chip3app13EventPathList7Builder18EndOfEventPathListEv,
                            __ZN4chip3app13EventPathList7Builder22CreateEventPathBuilderEv,
                            __ZN4chip3app13InvokeCommand6Parser4InitERKNS_3TLV9TLVReaderE,
                            __ZN4chip3app13InvokeCommand7Builder18EndOfInvokeCommandEv,
                            __ZN4chip3app13InvokeCommand7Builder21GetCommandListBuilderEv,
                            __ZN4chip3app13InvokeCommand7Builder24CreateCommandListBuilderEv,
                            __ZN4chip3app13InvokeCommand7Builder4InitEPNS_3TLV9TLVWriterE,
                            __ZN4chip3app13StatusElement6Parser4InitERKNS_3TLV9TLVReaderE,
                            __ZN4chip3app13StatusElement7Builder18EndOfStatusElementEv,
                            __ZN4chip3app13StatusElement7Builder19EncodeStatusElementENS_9Protocols13SecureChannel17GeneralStatusCodeEjt,
                            __ZN4chip3app13StatusElement7Builder4InitEPNS_3TLV9TLVWriterE,
                            __ZN4chip3app13StatusElement7Builder4InitEPNS_3TLV9TLVWriterEh,
                            __ZN4chip3app14CommandHandler13AddStatusCodeEPKNS0_17CommandPathParamsENS_9Protocols13SecureChannel17GeneralStatusCodeENS5_2IdEt,
                            __ZN4chip3app14CommandHandler17OnMessageReceivedEPNS_9Messaging15ExchangeContextERKNS_12PacketHeaderERKNS_13PayloadHeaderEONS_6System18PacketBufferHandleE,
                            __ZN4chip3app14CommandHandler19SendCommandResponseEv,
                            __ZN4chip3app14CommandHandler25ProcessCommandDataElementERNS0_18CommandDataElement6ParserE,
                            __ZN4chip3app15EventManagement10EvictEventERNS_3TLV21CHIPCircularTLVBufferEPvRNS2_9TLVReaderE,
                            __ZN4chip3app15EventManagement11GetInstanceEv,
                            __ZN4chip3app15EventManagement13EventIteratorERKNS_3TLV9TLVReaderEmPNS0_19EventLoadOutContextE,
                            __ZN4chip3app15EventManagement14ConstructEventEPNS0_19EventLoadOutContextEPNS0_20EventLoggingDelegateEPKNS0_12EventOptionsE,
                            __ZN4chip3app15EventManagement14GetEventReaderERNS_3TLV9TLVReaderENS0_13PriorityLevelEPNS0_26CircularEventBufferWrapperE,
                            __ZN4chip3app15EventManagement15CopyEventsSinceERKNS_3TLV9TLVReaderEmPv,
                            __ZN4chip3app15EventManagement15LogEventPrivateEPNS0_20EventLoggingDelegateERNS0_12EventOptionsERy,
                            __ZN4chip3app15EventManagement16CopyToNextBufferEPNS0_19CircularEventBufferE,
                            __ZN4chip3app15EventManagement16FetchEventsSinceERNS_3TLV9TLVWriterEPNS0_11ClusterInfoENS0_13PriorityLevelERy,
                            __ZN4chip3app15EventManagement18CalculateEventSizeEPNS0_20EventLoggingDelegateEPKNS0_12EventOptionsERj,
                            __ZN4chip3app15EventManagement18GetLastEventNumberENS0_13PriorityLevelE,
                            __ZN4chip3app15EventManagement19GetFirstEventNumberENS0_13PriorityLevelE,
                            __ZN4chip3app15EventManagement20FetchEventParametersERKNS_3TLV9TLVReaderEmPv,
                            __ZN4chip3app15EventManagement21CreateEventManagementEPNS_9Messaging15ExchangeManagerEjPNS0_19CircularEventBufferEPKNS0_19LogStorageResourcesE,
                            __ZN4chip3app15EventManagement21ScheduleFlushIfNeededENS0_12EventOptions4TypeE,
                            __ZN4chip3app15EventManagement22CopyAndAdjustDeltaTimeERKNS_3TLV9TLVReaderEmPv,
                            __ZN4chip3app15EventManagement22DestroyEventManagementEv,
                            __ZN4chip3app15EventManagement25SetScheduledEventEndpointEPy,
                            __ZN4chip3app15EventManagement27EnsureSpaceInCircularBufferEm,
                            __ZN4chip3app15EventManagement4InitEPNS_9Messaging15ExchangeManagerEjPNS0_19CircularEventBufferEPKNS0_19LogStorageResourcesE,
                            __ZN4chip3app15EventManagement8LogEventEPNS0_20EventLoggingDelegateERNS0_12EventOptionsERy,
                            __ZN4chip3app15EventManagement9CopyEventERKNS_3TLV9TLVReaderERNS2_9TLVWriterEPNS0_19EventLoadOutContextE,
                            __ZN4chip3app16EventDataElement6Parser12GetEventPathEPNS0_9EventPath6ParserE,
                            __ZN4chip3app16EventDataElement6Parser15GetUTCTimestampEPy,
                            __ZN4chip3app16EventDataElement6Parser16GetPriorityLevelEPh,
                            __ZN4chip3app16EventDataElement6Parser18GetSystemTimestampEPy,
                            __ZN4chip3app16EventDataElement6Parser20GetDeltaUTCTimestampEPy,
                            __ZN4chip3app16EventDataElement6Parser23GetDeltaSystemTimestampEPy,
                            __ZN4chip3app16EventDataElement6Parser4InitERKNS_3TLV9TLVReaderE,
                            __ZN4chip3app16EventDataElement6Parser9GetNumberEPy,
                            __ZN4chip3app16EventDataElement7Builder12UTCTimestampEy,
                            __ZN4chip3app16EventDataElement7Builder13PriorityLevelEh,
                            __ZN4chip3app16EventDataElement7Builder15SystemTimestampEy,
                            __ZN4chip3app16EventDataElement7Builder17DeltaUTCTimestampEy,
                            __ZN4chip3app16EventDataElement7Builder20DeltaSystemTimestampEy,
                            __ZN4chip3app16EventDataElement7Builder21EndOfEventDataElementEv,
                            __ZN4chip3app16EventDataElement7Builder22CreateEventPathBuilderEv,
                            __ZN4chip3app16EventDataElement7Builder4InitEPNS_3TLV9TLVWriterE,
                            __ZN4chip3app16EventDataElement7Builder6NumberEy,
                            __ZN4chip3app17AttributeDataList7Builder22EndOfAttributeDataListEv,
                            __ZN4chip3app17AttributeDataList7Builder33CreateAttributeDataElementBuilderEv,
                            __ZN4chip3app17AttributePathList7Builder22EndOfAttributePathListEv,
                            __ZN4chip3app17AttributePathList7Builder26CreateAttributePathBuilderEv,
                            __ZN4chip3app18CommandDataElement6Parser4InitERKNS_3TLV9TLVReaderE,
                            __ZN4chip3app18CommandDataElement7Builder23EndOfCommandDataElementEv,
                            __ZN4chip3app18CommandDataElement7Builder24CreateCommandPathBuilderEv,
                            __ZN4chip3app18CommandDataElement7Builder26CreateStatusElementBuilderEv,
                            __ZN4chip3app18CommandDataElement7Builder4InitEPNS_3TLV9TLVWriterE,
                            __ZN4chip3app19CircularEventBuffer11RemoveEventEy,
                            __ZN4chip3app19CircularEventBuffer15VendEventNumberEv,
                            __ZN4chip3app19CircularEventBuffer24UpdateFirstLastEventTimeENS0_9TimestampE,
                            __ZN4chip3app19CircularEventBuffer4InitEPhjPS1_S3_NS0_13PriorityLevelE,
                            __ZN4chip3app19CircularEventReader4InitEPNS0_26CircularEventBufferWrapperE,
                            __ZN4chip3app20AttributeDataElement6Parser4InitERKNS_3TLV9TLVReaderE,
                            __ZN4chip3app20AttributeDataElement7Builder11DataVersionEy,
                            __ZN4chip3app20AttributeDataElement7Builder15MoreClusterDataEb,
                            __ZN4chip3app20AttributeDataElement7Builder25EndOfAttributeDataElementEv,
                            __ZN4chip3app20AttributeDataElement7Builder26CreateAttributePathBuilderEv,
                            __ZN4chip3app20AttributeDataElement7Builder4InitEPNS_3TLV9TLVWriterE,
                            __ZN4chip3app22CHIPDeviceCallbacksMgr17AddReportCallbackEyhttPNS_8Callback10CancelableE,
                            __ZN4chip3app22CHIPDeviceCallbacksMgr17GetReportCallbackEyhttPPNS_8Callback10CancelableE,
                            __ZN4chip3app22CHIPDeviceCallbacksMgr19AddResponseCallbackEyhPNS_8Callback10CancelableES4_,
                            __ZN4chip3app22CHIPDeviceCallbacksMgr19GetResponseCallbackEyhPPNS_8Callback10CancelableES5_,
                            __ZN4chip3app22CHIPDeviceCallbacksMgr22CancelResponseCallbackEyh,
                            __ZN4chip3app22InteractionModelEngine11GetInstanceEv,
                            __ZN4chip3app22InteractionModelEngine13NewReadClientEPPNS0_10ReadClientE,
                            __ZN4chip3app22InteractionModelEngine13OnReadRequestEPNS_9Messaging15ExchangeContextERKNS_12PacketHeaderERKNS_13PayloadHeaderEONS_6System18PacketBufferHandleE,
                            __ZN4chip3app22InteractionModelEngine16NewCommandSenderEPPNS0_13CommandSenderE,
                            __ZN4chip3app22InteractionModelEngine16OnUnknownMsgTypeEPNS_9Messaging15ExchangeContextERKNS_12PacketHeaderERKNS_13PayloadHeaderEONS_6System18PacketBufferHandleE,
                            __ZN4chip3app22InteractionModelEngine17OnMessageReceivedEPNS_9Messaging15ExchangeContextERKNS_12PacketHeaderERKNS_13PayloadHeaderEONS_6System18PacketBufferHandleE,
                            __ZN4chip3app22InteractionModelEngine17OnResponseTimeoutEPNS_9Messaging15ExchangeContextE,
                            __ZN4chip3app22InteractionModelEngine22OnInvokeCommandRequestEPNS_9Messaging15ExchangeContextERKNS_12PacketHeaderERKNS_13PayloadHeaderEONS_6System18PacketBufferHandleE,
                            __ZN4chip3app22InteractionModelEngine22ReleaseClusterInfoListERPNS0_11ClusterInfoE,
                            __ZN4chip3app22InteractionModelEngine4InitEPNS_9Messaging15ExchangeManagerEPNS0_24InteractionModelDelegateE,
                            __ZN4chip3app22InteractionModelEngine8ShutdownEv,
                            __ZN4chip3app22InteractionModelEngine9PushFrontERPNS0_11ClusterInfoERS2_,
                            __ZN4chip3app22InteractionModelEngineC1Ev,
                            __ZN4chip3app22InteractionModelEngineC2Ev,
                            __ZN4chip3app23sInteractionModelEngineE,
                            __ZN4chip3app26CircularEventBufferWrapper13GetNextBufferERNS_3TLV9TLVReaderERPKhRj,
                            __ZN4chip3app26ServerClusterCommandExistsEthh,
                            __ZN4chip3app28DispatchSingleClusterCommandEthhRNS_3TLV9TLVReaderEPNS0_7CommandE,
                            __ZN4chip3app4List12ReadByteSpanEPKhtPNS_4SpanIhEE,
                            __ZN4chip3app4List13WriteByteSpanEPhtPNS_4SpanIhEE,
                            __ZN4chip3app4List26GetByteSpanOffsetFromIndexEPKhtt,
                            __ZN4chip3app6Parser4InitERKNS_3TLV9TLVReaderENS2_7TLVTypeE,
                            __ZN4chip3app6Parser9GetReaderEPNS_3TLV9TLVReaderE,
                            __ZN4chip3app6ParserC1Ev, __ZN4chip3app6ParserC2Ev,
                            __ZN4chip3app7Builder10ResetErrorEi,
                            __ZN4chip3app7Builder10ResetErrorEv,
                            __ZN4chip3app7Builder14EndOfContainerEv,
                            __ZN4chip3app7Builder22InitAnonymousStructureEPNS_3TLV9TLVWriterE,
                            __ZN4chip3app7Builder4InitEPNS_3TLV9TLVWriterENS2_7TLVTypeE,
                            __ZN4chip3app7BuilderC1Ev, __ZN4chip3app7BuilderC2Ev,
                            __ZN4chip3app7Command10ClearStateEv,
                            __ZN4chip3app7Command11MoveToStateENS1_12CommandStateE,
                            __ZN4chip3app7Command13FinishCommandEb,
                            __ZN4chip3app7Command14PrepareCommandEPKNS0_17CommandPathParamsEb,
                            __ZN4chip3app7Command20ConstructCommandPathERKNS0_17CommandPathParamsENS0_18CommandDataElement7BuilderE,
                            __ZN4chip3app7Command21ProcessCommandMessageEONS_6System18PacketBufferHandleENS1_13CommandRoleIdE,
                            __ZN4chip3app7Command23FinalizeCommandsMessageEv,
                            __ZN4chip3app7Command28AbortExistingExchangeContextEv,
                            __ZN4chip3app7Command30GetCommandDataElementTLVWriterEv,
                            __ZN4chip3app7Command4InitEPNS_9Messaging15ExchangeManagerEPNS0_24InteractionModelDelegateE,
                            __ZN4chip3app7Command5ResetEv,
                            __ZN4chip3app7Command8ShutdownEv,
                            __ZN4chip3app8clusters11KeypadInput21DispatchClientCommandEPNS0_7CommandEhhRNS_3TLV9TLVReaderE,
                            __ZN4chip3app8clusters11TestCluster21DispatchClientCommandEPNS0_7CommandEhhRNS_3TLV9TLVReaderE,
                            __ZN4chip3app8clusters12AccountLogin21DispatchClientCommandEPNS0_7CommandEhhRNS_3TLV9TLVReaderE,
                            __ZN4chip3app8clusters13ContentLaunch21DispatchClientCommandEPNS0_7CommandEhhRNS_3TLV9TLVReaderE,
                            __ZN4chip3app8clusters13MediaPlayback21DispatchClientCommandEPNS0_7CommandEhhRNS_3TLV9TLVReaderE,
                            __ZN4chip3app8clusters15TargetNavigator21DispatchClientCommandEPNS0_7CommandEhhRNS_3TLV9TLVReaderE,
                            __ZN4chip3app8clusters19ApplicationLauncher21DispatchClientCommandEPNS0_7CommandEhhRNS_3TLV9TLVReaderE,
                            __ZN4chip3app8clusters20GeneralCommissioning21DispatchClientCommandEPNS0_7CommandEhhRNS_3TLV9TLVReaderE,
                            __ZN4chip3app8clusters20NetworkCommissioning21DispatchClientCommandEPNS0_7CommandEhhRNS_3TLV9TLVReaderE,
                            __ZN4chip3app8clusters22OperationalCredentials21DispatchClientCommandEPNS0_7CommandEhhRNS_3TLV9TLVReaderE,
                            __ZN4chip3app8clusters6Groups21DispatchClientCommandEPNS0_7CommandEhhRNS_3TLV9TLVReaderE,
                            __ZN4chip3app8clusters6Scenes21DispatchClientCommandEPNS0_7CommandEhhRNS_3TLV9TLVReaderE,
                            __ZN4chip3app8clusters8DoorLock21DispatchClientCommandEPNS0_7CommandEhhRNS_3TLV9TLVReaderE,
                            __ZN4chip3app8clusters8Identify21DispatchClientCommandEPNS0_7CommandEhhRNS_3TLV9TLVReaderE,
                            __ZN4chip3app8clusters9TvChannel21DispatchClientCommandEPNS0_7CommandEhhRNS_3TLV9TLVReaderE,
                            __ZN4chip3app9EventList7Builder14EndOfEventListEv,
                            __ZN4chip3app9EventList7Builder18CreateEventBuilderEv,
                            __ZN4chip3app9EventPath6Parser4InitERKNS_3TLV9TLVReaderE,
                            __ZN4chip3app9EventPath7Builder10EndpointIdEh,
                            __ZN4chip3app9EventPath7Builder14EndOfEventPathEv,
                            __ZN4chip3app9EventPath7Builder4InitEPNS_3TLV9TLVWriterE,
                            __ZN4chip3app9EventPath7Builder4InitEPNS_3TLV9TLVWriterEh,
                            __ZN4chip3app9EventPath7Builder5_InitEPNS_3TLV9TLVWriterEy,
                            __ZN4chip3app9EventPath7Builder6NodeIdEy,
                            __ZN4chip3app9EventPath7Builder7EventIdEt,
                            __ZN4chip3app9EventPath7Builder9ClusterIdEt,
                            __ZN4chip3app9reporting6Engine10SendReportEPNS0_11ReadHandlerEONS_6System18PacketBufferHandleE,
                            __ZN4chip3app9reporting6Engine11CountEventsEPNS0_11ReadHandlerEPy,
                            __ZN4chip3app9reporting6Engine11ScheduleRunEv,
                            __ZN4chip3app9reporting6Engine15OnReportConfirmEv,
                            __ZN4chip3app9reporting6Engine19RetrieveClusterDataERNS0_20AttributeDataElement7BuilderERNS0_11ClusterInfoE,
                            __ZN4chip3app9reporting6Engine28BuildAndSendSingleReportDataEPNS0_11ReadHandlerE,
                            __ZN4chip3app9reporting6Engine30BuildSingleReportDataEventListERNS0_10ReportData7BuilderEPNS0_11ReadHandlerE,
                            __ZN4chip3app9reporting6Engine38BuildSingleReportDataAttributeDataListERNS0_10ReportData7BuilderEPNS0_11ReadHandlerE,
                            __ZN4chip3app9reporting6Engine3RunEPNS_6System5LayerEPvi,
                            __ZN4chip3app9reporting6Engine3RunEv,
                            __ZN4chip3app9reporting6Engine4InitEv,
                            __ZN4chip4ASN110ASN1Reader10DecodeHeadEv,
                            __ZN4chip4ASN110ASN1Reader10GetBooleanERb,
                            __ZN4chip4ASN110ASN1Reader10GetIntegerERx,
                            __ZN4chip4ASN110ASN1Reader10GetUTCTimeERNS0_17ASN1UniversalTimeE,
                            __ZN4chip4ASN110ASN1Reader11GetObjectIdERt,
                            __ZN4chip4ASN110ASN1Reader12GetBitStringERj,
                            __ZN4chip4ASN110ASN1Reader13ExitContainerEv,
                            __ZN4chip4ASN110ASN1Reader14EnterContainerEj,
                            __ZN4chip4ASN110ASN1Reader17ResetElementStateEv,
                            __ZN4chip4ASN110ASN1Reader18GetConstructedTypeERPKhRj,
                            __ZN4chip4ASN110ASN1Reader18GetGeneralizedTimeERNS0_17ASN1UniversalTimeE,
                            __ZN4chip4ASN110ASN1Reader19ExitConstructedTypeEv,
                            __ZN4chip4ASN110ASN1Reader20EnterConstructedTypeEv,
                            __ZN4chip4ASN110ASN1Reader20ExitEncapsulatedTypeEv,
                            __ZN4chip4ASN110ASN1Reader21EnterEncapsulatedTypeEv,
                            __ZN4chip4ASN110ASN1Reader4InitEPKhj,
                            __ZN4chip4ASN110ASN1Reader4NextEv,
                            __ZN4chip4ASN110ASN1Writer10EncodeHeadEhjbi,
                            __ZN4chip4ASN110ASN1Writer10PutBooleanEb,
                            __ZN4chip4ASN110ASN1Writer10PutIntegerEx,
                            __ZN4chip4ASN110ASN1Writer11PutObjectIdEPKht,
                            __ZN4chip4ASN110ASN1Writer11PutObjectIdEt,
                            __ZN4chip4ASN110ASN1Writer12EncodeLengthEPhhi,
                            __ZN4chip4ASN110ASN1Writer12PutBitStringEhPKht,
                            __ZN4chip4ASN110ASN1Writer12PutBitStringEhRNS_3TLV9TLVReaderE,
                            __ZN4chip4ASN110ASN1Writer12PutBitStringEj,
                            __ZN4chip4ASN110ASN1Writer14BytesForLengthEi,
                            __ZN4chip4ASN110ASN1Writer14InitNullWriterEv,
                            __ZN4chip4ASN110ASN1Writer14PutOctetStringEPKht,
                            __ZN4chip4ASN110ASN1Writer14PutOctetStringEhjPKht,
                            __ZN4chip4ASN110ASN1Writer14PutOctetStringEhjRNS_3TLV9TLVReaderE,
                            __ZN4chip4ASN110ASN1Writer18EndConstructedTypeEv,
                            __ZN4chip4ASN110ASN1Writer18PutConstructedTypeEPKht,
                            __ZN4chip4ASN110ASN1Writer19EndEncapsulatedTypeEv,
                            __ZN4chip4ASN110ASN1Writer19WriteDeferredLengthEv,
                            __ZN4chip4ASN110ASN1Writer20StartConstructedTypeEhj,
                            __ZN4chip4ASN110ASN1Writer21StartEncapsulatedTypeEhjb,
                            __ZN4chip4ASN110ASN1Writer4InitEPhj,
                            __ZN4chip4ASN110ASN1Writer7PutNullEv,
                            __ZN4chip4ASN110ASN1Writer7PutTimeERKNS0_17ASN1UniversalTimeE,
                            __ZN4chip4ASN110ASN1Writer8FinalizeEv,
                            __ZN4chip4ASN110ASN1Writer8PutValueEhjbPKht,
                            __ZN4chip4ASN110ASN1Writer8PutValueEhjbRNS_3TLV9TLVReaderE,
                            __ZN4chip4ASN110ASN1Writer9PutStringEjPKct,
                            __ZN4chip4ASN110GetOIDNameEt,
                            __ZN4chip4ASN113ParseObjectIDEPKht,
                            __ZN4chip4ASN113sOIDNameTableE,
                            __ZN4chip4ASN113sOIDTableSizeE,
                            __ZN4chip4ASN114GetOIDCategoryEt,
                            __ZN4chip4ASN118GetEncodedObjectIDEtRPKhRt,
                            __ZN4chip4ASN18DumpASN1ERNS0_10ASN1ReaderEPKcS4_,
                            __ZN4chip4ASN19sOIDTableE,
                            __ZN4chip4Inet11DNSResolver13CopyAddressesEihPK8addrinfo,
                            __ZN4chip4Inet11DNSResolver14CountAddressesEiPK8addrinfo,
                            __ZN4chip4Inet11DNSResolver17InitAddrInfoHintsER8addrinfo,
                            __ZN4chip4Inet11DNSResolver24ProcessGetAddrInfoResultEiP8addrinfo,
                            __ZN4chip4Inet11DNSResolver26HandleAsyncResolveCompleteEv,
                            __ZN4chip4Inet11DNSResolver5sPoolE,
                            __ZN4chip4Inet11DNSResolver6CancelEv,
                            __ZN4chip4Inet11DNSResolver7ResolveEPKcthhPNS0_9IPAddressEPFvPvihS5_ES6_,
                            __ZN4chip4Inet11RawEndPoint13BindInterfaceENS0_13IPAddressTypeEj,
                            __ZN4chip4Inet11RawEndPoint13SetICMPFilterEhPKh,
                            __ZN4chip4Inet11RawEndPoint15HandlePendingIOEv,
                            __ZN4chip4Inet11RawEndPoint17BindIPv6LinkLocalEjRKNS0_9IPAddressE,
                            __ZN4chip4Inet11RawEndPoint17GetBoundInterfaceEv,
                            __ZN4chip4Inet11RawEndPoint4BindENS0_13IPAddressTypeERKNS0_9IPAddressEj,
                            __ZN4chip4Inet11RawEndPoint4FreeEv,
                            __ZN4chip4Inet11RawEndPoint4InitEPNS0_9InetLayerENS0_9IPVersionENS0_10IPProtocolE,
                            __ZN4chip4Inet11RawEndPoint5CloseEv,
                            __ZN4chip4Inet11RawEndPoint5sPoolE,
                            __ZN4chip4Inet11RawEndPoint6ListenEPFvPNS0_15IPEndPointBasisEONS_6System18PacketBufferHandleEPKNS0_12IPPacketInfoEEPFvS3_iS9_EPv,
                            __ZN4chip4Inet11RawEndPoint6SendToERKNS0_9IPAddressEONS_6System18PacketBufferHandleEt,
                            __ZN4chip4Inet11RawEndPoint6SendToERKNS0_9IPAddressEjONS_6System18PacketBufferHandleEt,
                            __ZN4chip4Inet11RawEndPoint7SendMsgEPKNS0_12IPPacketInfoEONS_6System18PacketBufferHandleEt,
                            __ZN4chip4Inet11RawEndPoint9GetSocketENS0_13IPAddressTypeE,
                            __ZN4chip4Inet11TCPEndPoint10AckReceiveEt,
                            __ZN4chip4Inet11TCPEndPoint11IsConnectedEi,
                            __ZN4chip4Inet11TCPEndPoint11ReceiveDataEv,
                            __ZN4chip4Inet11TCPEndPoint12DriveSendingEv,
                            __ZN4chip4Inet11TCPEndPoint12GetLocalInfoEPNS0_9IPAddressEPt,
                            __ZN4chip4Inet11TCPEndPoint13EnableNoDelayEv,
                            __ZN4chip4Inet11TCPEndPoint13EnableReceiveEv,
                            __ZN4chip4Inet11TCPEndPoint14DisableReceiveEv,
                            __ZN4chip4Inet11TCPEndPoint14DriveReceivingEv,
                            __ZN4chip4Inet11TCPEndPoint14GetInterfaceIdEPj,
                            __ZN4chip4Inet11TCPEndPoint14SetIdleTimeoutEj,
                            __ZN4chip4Inet11TCPEndPoint14SetUserTimeoutEj,
                            __ZN4chip4Inet11TCPEndPoint15EnableKeepAliveEtt,
                            __ZN4chip4Inet11TCPEndPoint15HandlePendingIOEv,
                            __ZN4chip4Inet11TCPEndPoint16DisableKeepAliveEv,
                            __ZN4chip4Inet11TCPEndPoint16StopConnectTimerEv,
                            __ZN4chip4Inet11TCPEndPoint17PendingSendLengthEv,
                            __ZN4chip4Inet11TCPEndPoint17SetConnectTimeoutEj,
                            __ZN4chip4Inet11TCPEndPoint19BindSrcAddrFromIntfENS0_13IPAddressTypeEj,
                            __ZN4chip4Inet11TCPEndPoint20PendingReceiveLengthEv,
                            __ZN4chip4Inet11TCPEndPoint21HandleConnectCompleteEi,
                            __ZN4chip4Inet11TCPEndPoint22StartConnectTimerIfSetEv,
                            __ZN4chip4Inet11TCPEndPoint24HandleIncomingConnectionEv,
                            __ZN4chip4Inet11TCPEndPoint24TCPConnectTimeoutHandlerEPNS_6System5LayerEPvi,
                            __ZN4chip4Inet11TCPEndPoint25SetReceivedDataForTestingEONS_6System18PacketBufferHandleE,
                            __ZN4chip4Inet11TCPEndPoint4BindENS0_13IPAddressTypeERKNS0_9IPAddressEtb,
                            __ZN4chip4Inet11TCPEndPoint4FreeEv,
                            __ZN4chip4Inet11TCPEndPoint4InitEPNS0_9InetLayerE,
                            __ZN4chip4Inet11TCPEndPoint4SendEONS_6System18PacketBufferHandleEb,
                            __ZN4chip4Inet11TCPEndPoint5AbortEv,
                            __ZN4chip4Inet11TCPEndPoint5CloseEv,
                            __ZN4chip4Inet11TCPEndPoint5sPoolE,
                            __ZN4chip4Inet11TCPEndPoint6ListenEt,
                            __ZN4chip4Inet11TCPEndPoint7ConnectERKNS0_9IPAddressEtj,
                            __ZN4chip4Inet11TCPEndPoint7DoCloseEib,
                            __ZN4chip4Inet11TCPEndPoint8ShutdownEv,
                            __ZN4chip4Inet11TCPEndPoint9GetSocketENS0_13IPAddressTypeE,
                            __ZN4chip4Inet11UDPEndPoint12GetBoundPortEv,
                            __ZN4chip4Inet11UDPEndPoint13BindInterfaceENS0_13IPAddressTypeEj,
                            __ZN4chip4Inet11UDPEndPoint15HandlePendingIOEv,
                            __ZN4chip4Inet11UDPEndPoint17GetBoundInterfaceEv,
                            __ZN4chip4Inet11UDPEndPoint4BindENS0_13IPAddressTypeERKNS0_9IPAddressEtj,
                            __ZN4chip4Inet11UDPEndPoint4FreeEv,
                            __ZN4chip4Inet11UDPEndPoint4InitEPNS0_9InetLayerE,
                            __ZN4chip4Inet11UDPEndPoint5CloseEv,
                            __ZN4chip4Inet11UDPEndPoint5sPoolE,
                            __ZN4chip4Inet11UDPEndPoint6ListenEPFvPNS0_15IPEndPointBasisEONS_6System18PacketBufferHandleEPKNS0_12IPPacketInfoEEPFvS3_iS9_EPv,
                            __ZN4chip4Inet11UDPEndPoint6SendToERKNS0_9IPAddressEtONS_6System18PacketBufferHandleEt,
                            __ZN4chip4Inet11UDPEndPoint6SendToERKNS0_9IPAddressEtjONS_6System18PacketBufferHandleEt,
                            __ZN4chip4Inet11UDPEndPoint7SendMsgEPKNS0_12IPPacketInfoEONS_6System18PacketBufferHandleEt,
                            __ZN4chip4Inet11UDPEndPoint9GetSocketENS0_13IPAddressTypeE,
                            __ZN4chip4Inet12IPPacketInfo5ClearEv,
                            __ZN4chip4Inet12SocketEvents6SetFDsEiRiP6fd_setS4_S4_,
                            __ZN4chip4Inet12SocketEvents7FromFDsEiP6fd_setS3_S3_,
                            __ZN4chip4Inet13EndPointBasis17InitEndPointBasisERNS0_9InetLayerEPv,
                            __ZN4chip4Inet14GetIOCTLSocketEv,
                            __ZN4chip4Inet15IPEndPointBasis13BindInterfaceENS0_13IPAddressTypeEj,
                            __ZN4chip4Inet15IPEndPointBasis15HandlePendingIOEt,
                            __ZN4chip4Inet15IPEndPointBasis18JoinMulticastGroupEjRKNS0_9IPAddressE,
                            __ZN4chip4Inet15IPEndPointBasis19LeaveMulticastGroupEjRKNS0_9IPAddressE,
                            __ZN4chip4Inet15IPEndPointBasis20SetMulticastLoopbackENS0_9IPVersionEb,
                            __ZN4chip4Inet15IPEndPointBasis4BindENS0_13IPAddressTypeERKNS0_9IPAddressEtj,
                            __ZN4chip4Inet15IPEndPointBasis4InitEPNS0_9InetLayerE,
                            __ZN4chip4Inet15IPEndPointBasis7SendMsgEPKNS0_12IPPacketInfoEONS_6System18PacketBufferHandleEt,
                            __ZN4chip4Inet15IPEndPointBasis9GetSocketENS0_13IPAddressTypeEii,
                            __ZN4chip4Inet16CloseIOCTLSocketEv,
                            __ZN4chip4Inet16FormatLayerErrorEPcti,
                            __ZN4chip4Inet16GetInterfaceNameEjPcm,
                            __ZN4chip4Inet17InterfaceIterator10HasCurrentEv,
                            __ZN4chip4Inet17InterfaceIterator14GetInterfaceIdEv,
                            __ZN4chip4Inet17InterfaceIterator16GetInterfaceNameEPcm,
                            __ZN4chip4Inet17InterfaceIterator17SupportsMulticastEv,
                            __ZN4chip4Inet17InterfaceIterator19HasBroadcastAddressEv,
                            __ZN4chip4Inet17InterfaceIterator4IsUpEv,
                            __ZN4chip4Inet17InterfaceIterator4NextEv,
                            __ZN4chip4Inet17InterfaceIterator8GetFlagsEv,
                            __ZN4chip4Inet17InterfaceIteratorC1Ev,
                            __ZN4chip4Inet17InterfaceIteratorC2Ev,
                            __ZN4chip4Inet17InterfaceIteratorD1Ev,
                            __ZN4chip4Inet17InterfaceIteratorD2Ev,
                            __ZN4chip4Inet17InterfaceNameToIdEPKcRj,
                            __ZN4chip4Inet21NetmaskToPrefixLengthEPKht,
                            __ZN4chip4Inet23AsyncDNSResolverSockets14AsyncMutexLockEv,
                            __ZN4chip4Inet23AsyncDNSResolverSockets14DequeueRequestEPPNS0_11DNSResolverE,
                            __ZN4chip4Inet23AsyncDNSResolverSockets14EnqueueRequestERNS0_11DNSResolverE,
                            __ZN4chip4Inet23AsyncDNSResolverSockets15UpdateDNSResultERNS0_11DNSResolverEP8addrinfo,
                            __ZN4chip4Inet23AsyncDNSResolverSockets16AsyncMutexUnlockEv,
                            __ZN4chip4Inet23AsyncDNSResolverSockets16NotifyChipThreadEPNS0_11DNSResolverE,
                            __ZN4chip4Inet23AsyncDNSResolverSockets17AsyncDNSThreadRunEPv,
                            __ZN4chip4Inet23AsyncDNSResolverSockets18PrepareDNSResolverERNS0_11DNSResolverEPKcthhPNS0_9IPAddressEPFvPvihS7_ES8_,
                            __ZN4chip4Inet23AsyncDNSResolverSockets21DNSResultEventHandlerEPNS_6System5LayerEPvi,
                            __ZN4chip4Inet23AsyncDNSResolverSockets4InitEPNS0_9InetLayerE,
                            __ZN4chip4Inet23AsyncDNSResolverSockets6CancelERNS0_11DNSResolverE,
                            __ZN4chip4Inet23AsyncDNSResolverSockets7ResolveERNS0_11DNSResolverE,
                            __ZN4chip4Inet23AsyncDNSResolverSockets8ShutdownEv,
                            __ZN4chip4Inet24InterfaceAddressIterator10GetAddressEv,
                            __ZN4chip4Inet24InterfaceAddressIterator10HasCurrentEv,
                            __ZN4chip4Inet24InterfaceAddressIterator14GetInterfaceIdEv,
                            __ZN4chip4Inet24InterfaceAddressIterator15GetPrefixLengthEv,
                            __ZN4chip4Inet24InterfaceAddressIterator16GetInterfaceNameEPcm,
                            __ZN4chip4Inet24InterfaceAddressIterator17SupportsMulticastEv,
                            __ZN4chip4Inet24InterfaceAddressIterator19HasBroadcastAddressEv,
                            __ZN4chip4Inet24InterfaceAddressIterator20GetAddressWithPrefixERNS0_8IPPrefixE,
                            __ZN4chip4Inet24InterfaceAddressIterator4IsUpEv,
                            __ZN4chip4Inet24InterfaceAddressIterator4NextEv,
                            __ZN4chip4Inet24InterfaceAddressIteratorC1Ev,
                            __ZN4chip4Inet24InterfaceAddressIteratorC2Ev,
                            __ZN4chip4Inet24InterfaceAddressIteratorD1Ev,
                            __ZN4chip4Inet24InterfaceAddressIteratorD2Ev,
                            __ZN4chip4Inet27RegisterLayerErrorFormatterEv,
                            __ZN4chip4Inet8IPPrefix4ZeroE,
                            __ZN4chip4Inet8IPPrefixaSERKS1_,
                            __ZN4chip4Inet8Platform9InetLayer11DidShutdownEPNS0_9InetLayerEPvi,
                            __ZN4chip4Inet8Platform9InetLayer12WillShutdownEPNS0_9InetLayerEPv,
                            __ZN4chip4Inet8Platform9InetLayer7DidInitEPNS0_9InetLayerEPvi,
                            __ZN4chip4Inet8Platform9InetLayer8WillInitEPNS0_9InetLayerEPv,
                            __ZN4chip4Inet9IPAddress10FromStringEPKcRS1_,
                            __ZN4chip4Inet9IPAddress10FromStringEPKcmRS1_,
                            __ZN4chip4Inet9IPAddress11ReadAddressERPKhRS1_,
                            __ZN4chip4Inet9IPAddress12FromSockAddrERK8sockaddr,
                            __ZN4chip4Inet9IPAddress17MakeIPv4BroadcastEv,
                            __ZN4chip4Inet9IPAddress17MakeIPv6MulticastEhhPKh,
                            __ZN4chip4Inet9IPAddress17MakeIPv6MulticastEhhj,
                            __ZN4chip4Inet9IPAddress23MakeIPv6PrefixMulticastEhhRKyj,
                            __ZN4chip4Inet9IPAddress26MakeIPv6TransientMulticastEhhPKh,
                            __ZN4chip4Inet9IPAddress26MakeIPv6WellKnownMulticastEhj,
                            __ZN4chip4Inet9IPAddress3AnyE,
                            __ZN4chip4Inet9IPAddress7MakeLLAEy,
                            __ZN4chip4Inet9IPAddress7MakeULAEyty,
                            __ZN4chip4Inet9IPAddress8FromIPv4ERK7in_addr,
                            __ZN4chip4Inet9IPAddress8FromIPv6ERK8in6_addr,
                            __ZN4chip4Inet9IPAddressaSERKS1_,
                            __ZN4chip4Inet9InetLayer13PrepareSelectERiP6fd_setS4_S4_R7timeval,
                            __ZN4chip4Inet9InetLayer14NewRawEndPointENS0_9IPVersionENS0_10IPProtocolEPPNS0_11RawEndPointE,
                            __ZN4chip4Inet9InetLayer14NewTCPEndPointEPPNS0_11TCPEndPointE,
                            __ZN4chip4Inet9InetLayer14NewUDPEndPointEPPNS0_11UDPEndPointE,
                            __ZN4chip4Inet9InetLayer14UpdateSnapshotERNS_6System5Stats8SnapshotE,
                            __ZN4chip4Inet9InetLayer15GetPlatformDataEv,
                            __ZN4chip4Inet9InetLayer15SetPlatformDataEPv,
                            __ZN4chip4Inet9InetLayer16GetLinkLocalAddrEjPNS0_9IPAddressE,
                            __ZN4chip4Inet9InetLayer18HandleSelectResultEiP6fd_setS3_S3_,
                            __ZN4chip4Inet9InetLayer18IsIdleTimerRunningEv,
                            __ZN4chip4Inet9InetLayer18ResolveHostAddressEPKchPNS0_9IPAddressEPFvPvihS5_ES6_,
                            __ZN4chip4Inet9InetLayer18ResolveHostAddressEPKcthPNS0_9IPAddressEPFvPvihS5_ES6_,
                            __ZN4chip4Inet9InetLayer18ResolveHostAddressEPKcthhPNS0_9IPAddressEPFvPvihS5_ES6_,
                            __ZN4chip4Inet9InetLayer20GetInterfaceFromAddrERKNS0_9IPAddressERj,
                            __ZN4chip4Inet9InetLayer20MatchLocalIPv6SubnetERKNS0_9IPAddressE,
                            __ZN4chip4Inet9InetLayer24CancelResolveHostAddressEPFvPvihPNS0_9IPAddressEES2_,
                            __ZN4chip4Inet9InetLayer24HandleTCPInactivityTimerEPNS_6System5LayerEPvi,
                            __ZN4chip4Inet9InetLayer4InitERNS_6System5LayerEPv,
                            __ZN4chip4Inet9InetLayer8ShutdownEv,
                            __ZN4chip4Inet9InetLayerC1Ev,
                            __ZN4chip4Inet9InetLayerC2Ev,
                            __ZN4chip4Mdns11OnBrowseAddEPNS0_13BrowseContextEPKcS4_S4_j,
                            __ZN4chip4Mdns11ProcessMdnsER6fd_setS2_S2_,
                            __ZN4chip4Mdns12ChipMdnsInitEPFvPviES3_S1_,
                            __ZN4chip4Mdns12MakeHostNameEPcmRKNS_4SpanIhEE,
                            __ZN4chip4Mdns12MdnsContexts13PrepareSelectER6fd_setS3_S3_RiR7timeval,
                            __ZN4chip4Mdns12MdnsContexts15GetRegisterTypeEPKcPPNS0_14GenericContextE,
                            __ZN4chip4Mdns12MdnsContexts18HandleSelectResultER6fd_setS3_S3_,
                            __ZN4chip4Mdns12MdnsContexts3AddEPNS0_14GenericContextEP16_DNSServiceRef_t,
                            __ZN4chip4Mdns12MdnsContexts3GetENS0_11ContextTypeEPPNS0_14GenericContextE,
                            __ZN4chip4Mdns12MdnsContexts6DeleteEPNS0_14GenericContextE,
                            __ZN4chip4Mdns12MdnsContexts6RemoveEPNS0_14GenericContextE,
                            __ZN4chip4Mdns12MdnsContexts7RemovesENS0_11ContextTypeE,
                            __ZN4chip4Mdns12MdnsContexts9sInstanceE,
                            __ZN4chip4Mdns12MdnsContextsD1Ev,
                            __ZN4chip4Mdns12MdnsContextsD2Ev,
                            __ZN4chip4Mdns14ChipMdnsBrowseEPKcNS0_19MdnsServiceProtocolENS_4Inet13IPAddressTypeEjPFvPvPNS0_11MdnsServiceEmiES6_,
                            __ZN4chip4Mdns14OnBrowseRemoveEPNS0_13BrowseContextEPKcS4_S4_j,
                            __ZN4chip4Mdns15CheckForSuccessEPNS0_14GenericContextEPKcib,
                            __ZN4chip4Mdns15ChipMdnsResolveEPNS0_11MdnsServiceEjPFvPvS2_iES3_,
                            __ZN4chip4Mdns16MakeInstanceNameEPcmRKNS_6PeerIdE,
                            __ZN4chip4Mdns17ServiceAdvertiser8InstanceEv,
                            __ZN4chip4Mdns17UpdateMdnsDatasetER6fd_setS2_S2_RiR7timeval,
                            __ZN4chip4Mdns18MakeServiceSubtypeEPcmNS0_15DiscoveryFilterE,
                            __ZN4chip4Mdns18PopulateTextRecordEP15_TXTRecordRef_tPctPNS0_9TextEntryEm,
                            __ZN4chip4Mdns19ChipMdnsSetHostnameEPKc,
                            __ZN4chip4Mdns19ChipMdnsStopPublishEv,
                            __ZN4chip4Mdns21DiscoveryImplPlatform11GetInstanceEv,
                            __ZN4chip4Mdns21DiscoveryImplPlatform13ResolveNodeIdERKNS_6PeerIdENS_4Inet13IPAddressTypeE,
                            __ZN4chip4Mdns21DiscoveryImplPlatform13SetupHostnameENS_4SpanIhEE,
                            __ZN4chip4Mdns21DiscoveryImplPlatform14HandleMdnsInitEPvi,
                            __ZN4chip4Mdns21DiscoveryImplPlatform15HandleMdnsErrorEPvi,
                            __ZN4chip4Mdns21DiscoveryImplPlatform17StopPublishDeviceEv,
                            __ZN4chip4Mdns21DiscoveryImplPlatform19HandleNodeIdResolveEPvPNS0_11MdnsServiceEi,
                            __ZN4chip4Mdns21DiscoveryImplPlatform19SetResolverDelegateEPNS0_16ResolverDelegateE,
                            __ZN4chip4Mdns21DiscoveryImplPlatform4InitEv,
                            __ZN4chip4Mdns21DiscoveryImplPlatform5StartEPNS_4Inet9InetLayerEt,
                            __ZN4chip4Mdns21DiscoveryImplPlatform8sManagerE,
                            __ZN4chip4Mdns21DiscoveryImplPlatform9AdvertiseERKNS0_31CommissionAdvertisingParametersE,
                            __ZN4chip4Mdns21DiscoveryImplPlatform9AdvertiseERKNS0_32OperationalAdvertisingParametersE,
                            __ZN4chip4Mdns21DiscoveryImplPlatformC1Ev,
                            __ZN4chip4Mdns21DiscoveryImplPlatformC2Ev,
                            __ZN4chip4Mdns22ChipMdnsPublishServiceEPKNS0_11MdnsServiceE,
                            __ZN4chip4Mdns25ExtractIdFromInstanceNameEPKcPNS_6PeerIdE,
                            __ZN4chip4Mdns26ChipMdnsStopPublishServiceEPKNS0_11MdnsServiceE,
                            __ZN4chip4Mdns5Error8ToStringEi,
                            __ZN4chip4Mdns6BrowseEPvPFvS1_PNS0_11MdnsServiceEmiEjPKcNS0_19MdnsServiceProtocolE,
                            __ZN4chip4Mdns8RegisterEjPKcS2_tP15_TXTRecordRef_t,
                            __ZN4chip4Mdns8Resolver8InstanceEv,
                            __ZN4chip6Crypto11Hash_SHA256EPKhmPh,
                            __ZN4chip6Crypto11P256Keypair10InitializeEv,
                            __ZN4chip6Crypto11P256Keypair11DeserializeERNS0_19CapacityBoundBufferILm97EEE,
                            __ZN4chip6Crypto11P256Keypair14ECDSA_sign_msgEPKhmRNS0_19CapacityBoundBufferILm72EEE,
                            __ZN4chip6Crypto11P256Keypair15ECDSA_sign_hashEPKhmRNS0_19CapacityBoundBufferILm72EEE,
                            __ZN4chip6Crypto11P256Keypair28NewCertificateSigningRequestEPhRm,
                            __ZN4chip6Crypto11P256KeypairD0Ev,
                            __ZN4chip6Crypto11P256KeypairD1Ev,
                            __ZN4chip6Crypto11P256KeypairD2Ev,
                            __ZN4chip6Crypto13MapECPGroupIdENS0_20SupportedECPKeyTypesE,
                            __ZN4chip6Crypto13PBKDF2_sha25613pbkdf2_sha256EPKhmS3_mjjPh,
                            __ZN4chip6Crypto14DRBG_get_bytesEPhm,
                            __ZN4chip6Crypto15AES_CCM_decryptEPKhmS2_mS2_mS2_mS2_mPh,
                            __ZN4chip6Crypto15AES_CCM_encryptEPKhmS2_mS2_mS2_mPhS3_m,
                            __ZN4chip6Crypto15ClearSecretDataEPhj,
                            __ZN4chip6Crypto17LoadCertFromPKCS7EPKcPNS0_19CapacityBoundBufferILm600EEEj,
                            __ZN4chip6Crypto18Hash_SHA256_stream5BeginEv,
                            __ZN4chip6Crypto18Hash_SHA256_stream5ClearEv,
                            __ZN4chip6Crypto18Hash_SHA256_stream6FinishEPh,
                            __ZN4chip6Crypto18Hash_SHA256_stream7AddDataEPKhm,
                            __ZN4chip6Crypto18Hash_SHA256_streamC1Ev,
                            __ZN4chip6Crypto18Hash_SHA256_streamC2Ev,
                            __ZN4chip6Crypto18Hash_SHA256_streamD1Ev,
                            __ZN4chip6Crypto18Hash_SHA256_streamD2Ev,
                            __ZN4chip6Crypto18LoadCertsFromPKCS7EPKcPNS0_19CapacityBoundBufferILm600EEEPj,
                            __ZN4chip6Crypto18add_entropy_sourceEPFiPvPhmPmES1_m,
                            __ZN4chip6Crypto24ValidateCertificateChainEPKhmS2_mS2_m,
                            __ZN4chip6Crypto25ExtractPubkeyFromX509CertERKNS_4SpanIhEERNS0_13P256PublicKeyE,
                            __ZN4chip6Crypto25GetNumberOfCertsFromPKCS7EPKcPj,
                            __ZN4chip6Crypto29Spake2p_P256_SHA256_HKDF_HMAC10FEGenerateEPv,
                            __ZN4chip6Crypto29Spake2p_P256_SHA256_HKDF_HMAC10PointWriteEPKvPhm,
                            __ZN4chip6Crypto29Spake2p_P256_SHA256_HKDF_HMAC11PointAddMulEPvPKvS4_S4_S4_,
                            __ZN4chip6Crypto29Spake2p_P256_SHA256_HKDF_HMAC11PointInvertEPv,
                            __ZN4chip6Crypto29Spake2p_P256_SHA256_HKDF_HMAC12HashFinalizeEPh,
                            __ZN4chip6Crypto29Spake2p_P256_SHA256_HKDF_HMAC12InitInternalEv,
                            __ZN4chip6Crypto29Spake2p_P256_SHA256_HKDF_HMAC12PointIsValidEPv,
                            __ZN4chip6Crypto29Spake2p_P256_SHA256_HKDF_HMAC16PointCofactorMulEPv,
                            __ZN4chip6Crypto29Spake2p_P256_SHA256_HKDF_HMAC3KDFEPKhmS3_mS3_mPhm,
                            __ZN4chip6Crypto29Spake2p_P256_SHA256_HKDF_HMAC3MacEPKhmS3_mPh,
                            __ZN4chip6Crypto29Spake2p_P256_SHA256_HKDF_HMAC4HashEPKhm,
                            __ZN4chip6Crypto29Spake2p_P256_SHA256_HKDF_HMAC5FEMulEPvPKvS4_,
                            __ZN4chip6Crypto29Spake2p_P256_SHA256_HKDF_HMAC6FELoadEPKhmPv,
                            __ZN4chip6Crypto29Spake2p_P256_SHA256_HKDF_HMAC7FEWriteEPKvPhm,
                            __ZN4chip6Crypto29Spake2p_P256_SHA256_HKDF_HMAC8ComputeLEPhPmPKhm,
                            __ZN4chip6Crypto29Spake2p_P256_SHA256_HKDF_HMAC8FreeImplEv,
                            __ZN4chip6Crypto29Spake2p_P256_SHA256_HKDF_HMAC8InitImplEv,
                            __ZN4chip6Crypto29Spake2p_P256_SHA256_HKDF_HMAC8PointMulEPvPKvS4_,
                            __ZN4chip6Crypto29Spake2p_P256_SHA256_HKDF_HMAC9MacVerifyEPKhmS3_mS3_m,
                            __ZN4chip6Crypto29Spake2p_P256_SHA256_HKDF_HMAC9PointLoadEPKhmPv,
                            __ZN4chip6Crypto31VerifyCertificateSigningRequestEPKhmRNS0_13P256PublicKeyE,
                            __ZN4chip6Crypto7Spake2p10KeyConfirmEPKhm,
                            __ZN4chip6Crypto7Spake2p11BeginProverEPKhmS3_mS3_mS3_m,
                            __ZN4chip6Crypto7Spake2p12GenerateKeysEv,
                            __ZN4chip6Crypto7Spake2p12InternalHashEPKhm,
                            __ZN4chip6Crypto7Spake2p13BeginVerifierEPKhmS3_mS3_mS3_m,
                            __ZN4chip6Crypto7Spake2p15ComputeRoundOneEPKhmPhPm,
                            __ZN4chip6Crypto7Spake2p15ComputeRoundTwoEPKhmPhPm,
                            __ZN4chip6Crypto7Spake2p4InitEPKhm,
                            __ZN4chip6Crypto7Spake2p7GetKeysEPhPm,
                            __ZN4chip6Crypto7Spake2p7WriteMNEv,
                            __ZN4chip6Crypto7Spake2pC2Emmm,
                            __ZN4chip6Crypto8HKDF_sha11HKDF_SHA256EPKhmS3_mS3_mPhm,
                            __ZN4chip6Crypto9Hash_SHA1EPKhmPh,
                            __ZN4chip6System12IsErrorPOSIXEi,
                            __ZN4chip6System12PacketBuffer11CompactHeadEv,
                            __ZN4chip6System12PacketBuffer11ConsumeHeadEt,
                            __ZN4chip6System12PacketBuffer11sBufferPoolE,
                            __ZN4chip6System12PacketBuffer12AlignPayloadEt,
                            __ZN4chip6System12PacketBuffer13BuildFreeListEv,
                            __ZN4chip6System12PacketBuffer13SetDataLengthEtPS1_,
                            __ZN4chip6System12PacketBuffer18EnsureReservedSizeEt,
                            __ZN4chip6System12PacketBuffer4FreeEPS1_,
                            __ZN4chip6System12PacketBuffer5ClearEv,
                            __ZN4chip6System12PacketBuffer6AddRefEv,
                            __ZN4chip6System12PacketBuffer7ConsumeEt,
                            __ZN4chip6System12PacketBuffer8AddToEndEONS0_18PacketBufferHandleE,
                            __ZN4chip6System12PacketBuffer8FreeHeadEPS1_,
                            __ZN4chip6System12PacketBuffer8SetStartEPh,
                            __ZN4chip6System12PacketBuffer9sFreeListE,
                            __ZN4chip6System13MapErrorPOSIXEi,
                            __ZN4chip6System14MapErrorZephyrEi,
                            __ZN4chip6System15SystemWakeEvent4OpenEv,
                            __ZN4chip6System15SystemWakeEvent5CloseEv,
                            __ZN4chip6System15SystemWakeEvent6NotifyEv,
                            __ZN4chip6System15SystemWakeEvent7ConfirmEv,
                            __ZN4chip6System16FormatLayerErrorEPcti,
                            __ZN4chip6System16FormatPOSIXErrorEPcti,
                            __ZN4chip6System18DescribeErrorPOSIXEi,
                            __ZN4chip6System18PacketBufferHandle11NewWithDataEPKvmtt,
                            __ZN4chip6System18PacketBufferHandle3NewEmt,
                            __ZN4chip6System18PacketBufferHandle7PopHeadEv,
                            __ZN4chip6System27RegisterLayerErrorFormatterEv,
                            __ZN4chip6System27RegisterPOSIXErrorFormatterEv,
                            __ZN4chip6System27TLVPacketBufferBackingStore12GetNewBufferERNS_3TLV9TLVWriterERPhRj,
                            __ZN4chip6System27TLVPacketBufferBackingStore13GetNextBufferERNS_3TLV9TLVReaderERPKhRj,
                            __ZN4chip6System27TLVPacketBufferBackingStore14FinalizeBufferERNS_3TLV9TLVWriterEPhj,
                            __ZN4chip6System27TLVPacketBufferBackingStore6OnInitERNS_3TLV9TLVReaderERPKhRj,
                            __ZN4chip6System27TLVPacketBufferBackingStore6OnInitERNS_3TLV9TLVWriterERPhRj,
                            __ZN4chip6System5Layer10StartTimerEjPFvPS1_PviES3_,
                            __ZN4chip6System5Layer10StartTimerEjPNS_8Callback8CallbackIPFvPvEEE,
                            __ZN4chip6System5Layer10WakeSelectEv,
                            __ZN4chip6System5Layer11CancelTimerEPFvPS1_PviES3_,
                            __ZN4chip6System5Layer12ScheduleWorkEPFvPS1_PviES3_,
                            __ZN4chip6System5Layer13PrepareSelectERiP6fd_setS4_S4_R7timeval,
                            __ZN4chip6System5Layer15SetPlatformDataEPv,
                            __ZN4chip6System5Layer17GetClock_RealTimeERy,
                            __ZN4chip6System5Layer17SetClock_RealTimeEy,
                            __ZN4chip6System5Layer18GetClock_MonotonicEv,
                            __ZN4chip6System5Layer18HandleSelectResultEiP6fd_setS3_S3_,
                            __ZN4chip6System5Layer19GetClock_RealTimeMSERy,
                            __ZN4chip6System5Layer20GetClock_MonotonicMSEv,
                            __ZN4chip6System5Layer22DispatchTimerCallbacksEy,
                            __ZN4chip6System5Layer23GetClock_MonotonicHiResEv,
                            __ZN4chip6System5Layer4InitEPv,
                            __ZN4chip6System5Layer8NewTimerERPNS0_5TimerE,
                            __ZN4chip6System5Layer8ShutdownEv,
                            __ZN4chip6System5LayerC1Ev,
                            __ZN4chip6System5LayerC2Ev,
                            __ZN4chip6System5Stats10DifferenceERNS1_8SnapshotES3_S3_,
                            __ZN4chip6System5Stats10GetStringsEv,
                            __ZN4chip6System5Stats14UpdateSnapshotERNS1_8SnapshotE,
                            __ZN4chip6System5Stats15sHighWatermarksE,
                            __ZN4chip6System5Stats15sResourcesInUseE,
                            __ZN4chip6System5Stats17GetHighWatermarksEv,
                            __ZN4chip6System5Stats17GetResourcesInUseEv,
                            __ZN4chip6System5Timer12ScheduleWorkEPFvPNS0_5LayerEPviES4_,
                            __ZN4chip6System5Timer14HandleCompleteEv,
                            __ZN4chip6System5Timer14IsEarlierEpochERKyS3_,
                            __ZN4chip6System5Timer15GetCurrentEpochEv,
                            __ZN4chip6System5Timer5StartEjPFvPNS0_5LayerEPviES4_,
                            __ZN4chip6System5Timer5sPoolE,
                            __ZN4chip6System5Timer6CancelEv,
                            __ZN4chip6System6Object7ReleaseEv,
                            __ZN4chip6System6Object9TryCreateERNS0_5LayerEm,
                            __ZN4chip6System8Platform5Layer11DidShutdownERNS0_5LayerEPvi,
                            __ZN4chip6System8Platform5Layer12WillShutdownERNS0_5LayerEPv,
                            __ZN4chip6System8Platform5Layer17GetClock_RealTimeERy,
                            __ZN4chip6System8Platform5Layer17SetClock_RealTimeEy,
                            __ZN4chip6System8Platform5Layer18GetClock_MonotonicEv,
                            __ZN4chip6System8Platform5Layer19GetClock_RealTimeMSERy,
                            __ZN4chip6System8Platform5Layer20GetClock_MonotonicMSEv,
                            __ZN4chip6System8Platform5Layer23GetClock_MonotonicHiResEv,
                            __ZN4chip6System8Platform5Layer7DidInitERNS0_5LayerEPvi,
                            __ZN4chip6System8Platform5Layer8WillInitERNS0_5LayerEPv,
                            __ZN4chip7Logging10gLogFilterE,
                            __ZN4chip7Logging12GetLogFilterEv,
                            __ZN4chip7Logging12SetLogFilterEh,
                            __ZN4chip7Logging13GetModuleNameEPchh,
                            __ZN4chip7Logging17IsCategoryEnabledEh,
                            __ZN4chip7Logging22SetLogRedirectCallbackEPFvPKchS2_PcE,
                            __ZN4chip7Logging3LogEhhPKcz,
                            __ZN4chip7Logging4LogVEhhPKcPc,
                            __ZN4chip7Logging8Platform4LogVEPKchS3_Pc,
                            __ZN4chip8Encoding12BufferWriter3PutEPKc,
                            __ZN4chip8Encoding12BufferWriter3PutEPKvm,
                            __ZN4chip8Encoding12BufferWriter3PutEh,
                            __ZN4chip8Encoding12LittleEndian12BufferWriter9EndianPutEym,
                            __ZN4chip8Encoding22PacketBufferWriterUtil8FinalizeERNS0_12BufferWriterERNS_6System18PacketBufferHandleE,
                            __ZN4chip8Encoding9BigEndian12BufferWriter9EndianPutEym,
                            __ZN4chip8ErrorStrEi,
                            __ZN4chip8Platform10MemoryFreeEPv,
                            __ZN4chip8Platform10MemoryInitEPvm,
                            __ZN4chip8Platform11MemoryAllocEm,
                            __ZN4chip8Platform12MemoryCallocEmm,
                            __ZN4chip8Platform13MemoryReallocEPvm,
                            __ZN4chip8Platform14MemoryShutdownEv,
                            __ZN4chip8Platform16PersistedStorage4ReadEPKcRj,
                            __ZN4chip8Platform16PersistedStorage5WriteEPKcj,
                            __ZN4chip8Platform19MemoryAllocatorInitEPvm,
                            __ZN4chip8Platform23MemoryAllocatorShutdownEv,
                            __ZN4chip8Platform26MemoryInternalCheckPointerEPKvm,
                            __ZN4chip9GetRandU8Ev, __ZN4chip9IsCHIPTagEh,
                            __ZN4chip9Messaging15ExchangeContext11SendMessageENS_9Protocols2IdEhONS_6System18PacketBufferHandleERKNS_8BitFlagsINS0_16SendMessageFlagsEtEE,
                            __ZN4chip9Messaging15ExchangeContext13HandleMessageERKNS_12PacketHeaderERKNS_13PayloadHeaderERKNS_9Transport11PeerAddressEONS_6System18PacketBufferHandleE,
                            __ZN4chip9Messaging15ExchangeContext13MatchExchangeENS_19SecureSessionHandleERKNS_12PacketHeaderERKNS_13PayloadHeaderE,
                            __ZN4chip9Messaging15ExchangeContext18SetResponseTimeoutEj,
                            __ZN4chip9Messaging15ExchangeContext18StartResponseTimerEv,
                            __ZN4chip9Messaging15ExchangeContext19CancelResponseTimerEv,
                            __ZN4chip9Messaging15ExchangeContext19OnConnectionExpiredEv,
                            __ZN4chip9Messaging15ExchangeContext19SetResponseExpectedEb,
                            __ZN4chip9Messaging15ExchangeContext21HandleResponseTimeoutEPNS_6System5LayerEPvi,
                            __ZN4chip9Messaging15ExchangeContext21NotifyResponseTimeoutEv,
                            __ZN4chip9Messaging15ExchangeContext5AbortEv,
                            __ZN4chip9Messaging15ExchangeContext5CloseEv,
                            __ZN4chip9Messaging15ExchangeContext7DoCloseEb,
                            __ZN4chip9Messaging15ExchangeContextC1EPNS0_15ExchangeManagerEtNS_19SecureSessionHandleEbPNS0_16ExchangeDelegateE,
                            __ZN4chip9Messaging15ExchangeContextC2EPNS0_15ExchangeManagerEtNS_19SecureSessionHandleEbPNS0_16ExchangeDelegateE,
                            __ZN4chip9Messaging15ExchangeContextD1Ev,
                            __ZN4chip9Messaging15ExchangeContextD2Ev,
                            __ZN4chip9Messaging15ExchangeManager10NewContextENS_19SecureSessionHandleEPNS0_16ExchangeDelegateE,
                            __ZN4chip9Messaging15ExchangeManager11RegisterUMHENS_9Protocols2IdEsPNS0_16ExchangeDelegateE,
                            __ZN4chip9Messaging15ExchangeManager13UnregisterUMHENS_9Protocols2IdEs,
                            __ZN4chip9Messaging15ExchangeManager14OnReceiveErrorEiRKNS_9Transport11PeerAddressEPNS_16SecureSessionMgrE,
                            __ZN4chip9Messaging15ExchangeManager15OnNewConnectionENS_19SecureSessionHandleEPNS_16SecureSessionMgrE,
                            __ZN4chip9Messaging15ExchangeManager17OnMessageReceivedERKNS_12PacketHeaderERKNS_13PayloadHeaderENS_19SecureSessionHandleERKNS_9Transport11PeerAddressEONS_6System18PacketBufferHandleEPNS_16SecureSessionMgrE,
                            __ZN4chip9Messaging15ExchangeManager17OnMessageReceivedERKNS_9Transport11PeerAddressEONS_6System18PacketBufferHandleE,
                            __ZN4chip9Messaging15ExchangeManager19OnConnectionExpiredENS_19SecureSessionHandleEPNS_16SecureSessionMgrE,
                            __ZN4chip9Messaging15ExchangeManager27CloseAllContextsForDelegateEPKNS0_16ExchangeDelegateE,
                            __ZN4chip9Messaging15ExchangeManager40RegisterUnsolicitedMessageHandlerForTypeENS_9Protocols2IdEhPNS0_16ExchangeDelegateE,
                            __ZN4chip9Messaging15ExchangeManager42UnregisterUnsolicitedMessageHandlerForTypeENS_9Protocols2IdEh,
                            __ZN4chip9Messaging15ExchangeManager44RegisterUnsolicitedMessageHandlerForProtocolENS_9Protocols2IdEPNS0_16ExchangeDelegateE,
                            __ZN4chip9Messaging15ExchangeManager46UnregisterUnsolicitedMessageHandlerForProtocolENS_9Protocols2IdE,
                            __ZN4chip9Messaging15ExchangeManager4InitEPNS_16SecureSessionMgrE,
                            __ZN4chip9Messaging15ExchangeManager8ShutdownEv,
                            __ZN4chip9Messaging15ExchangeManagerC1Ev,
                            __ZN4chip9Messaging15ExchangeManagerC2Ev,
                            __ZN4chip9Messaging18FilterUDPSendErrorEib,
                            __ZN4chip9Messaging18ReliableMessageMgr10StartTimerEv,
                            __ZN4chip9Messaging18ReliableMessageMgr11ExpireTicksEv,
                            __ZN4chip9Messaging18ReliableMessageMgr14ExecuteActionsEv,
                            __ZN4chip9Messaging18ReliableMessageMgr17AddToRetransTableEPNS0_22ReliableMessageContextEPPNS1_17RetransTableEntryE,
                            __ZN4chip9Messaging18ReliableMessageMgr17ClearRetransTableEPNS0_22ReliableMessageContextE,
                            __ZN4chip9Messaging18ReliableMessageMgr17ClearRetransTableERNS1_17RetransTableEntryE,
                            __ZN4chip9Messaging18ReliableMessageMgr17RetransTableEntryC1Ev,
                            __ZN4chip9Messaging18ReliableMessageMgr17RetransTableEntryC2Ev,
                            __ZN4chip9Messaging18ReliableMessageMgr18PauseRetransmisionEPNS0_22ReliableMessageContextEj,
                            __ZN4chip9Messaging18ReliableMessageMgr18StartRetransmisionEPNS1_17RetransTableEntryE,
                            __ZN4chip9Messaging18ReliableMessageMgr19ResumeRetransmisionEPNS0_22ReliableMessageContextE,
                            __ZN4chip9Messaging18ReliableMessageMgr20SendFromRetransTableEPNS1_17RetransTableEntryE,
                            __ZN4chip9Messaging18ReliableMessageMgr23CheckAndRemRetransTableEPNS0_22ReliableMessageContextEj,
                            __ZN4chip9Messaging18ReliableMessageMgr23FailRetransTableEntriesEPNS0_22ReliableMessageContextEi,
                            __ZN4chip9Messaging18ReliableMessageMgr27GetTickCounterFromTimeDeltaEy,
                            __ZN4chip9Messaging18ReliableMessageMgr28GetTickCounterFromTimePeriodEy,
                            __ZN4chip9Messaging18ReliableMessageMgr29TicklessDebugDumpRetransTableEPKc,
                            __ZN4chip9Messaging18ReliableMessageMgr4InitEPNS_6System5LayerEPNS_16SecureSessionMgrE,
                            __ZN4chip9Messaging18ReliableMessageMgr7TimeoutEPNS_6System5LayerEPvi,
                            __ZN4chip9Messaging18ReliableMessageMgr8ShutdownEv,
                            __ZN4chip9Messaging18ReliableMessageMgr9StopTimerEv,
                            __ZN4chip9Messaging18ReliableMessageMgrC1ERNS_16BitMapObjectPoolINS0_15ExchangeContextELm8EEE,
                            __ZN4chip9Messaging18ReliableMessageMgrC2ERNS_16BitMapObjectPoolINS0_15ExchangeContextELm8EEE,
                            __ZN4chip9Messaging18ReliableMessageMgrD1Ev,
                            __ZN4chip9Messaging18ReliableMessageMgrD2Ev,
                            __ZN4chip9Messaging22ExchangeContextDeletor7ReleaseEPNS0_15ExchangeContextE,
                            __ZN4chip9Messaging22IsSendErrorNonCriticalEi,
                            __ZN4chip9Messaging22ReliableMessageContext11SetOccupiedEb,
                            __ZN4chip9Messaging22ReliableMessageContext13HandleRcvdAckEj,
                            __ZN4chip9Messaging22ReliableMessageContext13RetainContextEv,
                            __ZN4chip9Messaging22ReliableMessageContext13SetAckPendingEb,
                            __ZN4chip9Messaging22ReliableMessageContext14HandleNeedsAckEjNS_8BitFlagsINS0_17MessageFlagValuesEjEE,
                            __ZN4chip9Messaging22ReliableMessageContext14ReleaseContextEv,
                            __ZN4chip9Messaging22ReliableMessageContext15SetDropAckDebugEb,
                            __ZN4chip9Messaging22ReliableMessageContext17SetAutoRequestAckEb,
                            __ZN4chip9Messaging22ReliableMessageContext18GetExchangeContextEv,
                            __ZN4chip9Messaging22ReliableMessageContext18SetMsgRcvdFromPeerEb,
                            __ZN4chip9Messaging22ReliableMessageContext19SetPeerRequestedAckEb,
                            __ZN4chip9Messaging22ReliableMessageContext21GetReliableMessageMgrEv,
                            __ZN4chip9Messaging22ReliableMessageContext24SendStandaloneAckMessageEv,
                            __ZN4chip9Messaging22ReliableMessageContext30GetActiveRetransmitTimeoutTickEv,
                            __ZN4chip9Messaging22ReliableMessageContext31GetInitialRetransmitTimeoutTickEv,
                            __ZN4chip9Messaging22ReliableMessageContext9FlushAcksEv,
                            __ZN4chip9Messaging22ReliableMessageContextC1Ev,
                            __ZN4chip9Messaging22ReliableMessageContextC2Ev,
                            __ZN4chip9Messaging23ExchangeMessageDispatch11SendMessageENS_19SecureSessionHandleEtbPNS0_22ReliableMessageContextEbNS_9Protocols2IdEhONS_6System18PacketBufferHandleE,
                            __ZN4chip9Messaging23ExchangeMessageDispatch17OnMessageReceivedERKNS_13PayloadHeaderEjRKNS_9Transport11PeerAddressEPNS0_22ReliableMessageContextE,
                            __ZN4chip9Messaging27ApplicationExchangeDispatch15SendMessageImplENS_19SecureSessionHandleERNS_13PayloadHeaderEONS_6System18PacketBufferHandleEPNS_27EncryptedPacketBufferHandleE,
                            __ZN4chip9Messaging27ApplicationExchangeDispatch16MessagePermittedEth,
                            __ZN4chip9Messaging27IsIgnoredMulticastSendErrorEi,
                            __ZN4chip9Transport16AdminPairingInfo11GenerateKeyEtPcm,
                            __ZN4chip9Transport16AdminPairingInfo11SetRootCertERKNS_4SpanIhEE,
                            __ZN4chip9Transport16AdminPairingInfo12FetchFromKVSEPNS_25PersistentStorageDelegateE,
                            __ZN4chip9Transport16AdminPairingInfo12StoreIntoKVSEPNS_25PersistentStorageDelegateE,
                            __ZN4chip9Transport16AdminPairingInfo13DeleteFromKVSEPNS_25PersistentStorageDelegateEt,
                            __ZN4chip9Transport16AdminPairingInfo14GetCredentialsERNS_11Credentials24OperationalCredentialSetERNS2_18ChipCertificateSetERNS2_16CertificateKeyIdE,
                            __ZN4chip9Transport16AdminPairingInfo14SetFabricLabelEPKh,
                            __ZN4chip9Transport16AdminPairingInfo15ReleaseRootCertEv,
                            __ZN4chip9Transport16AdminPairingInfo17SetOperationalKeyERKNS_6Crypto11P256KeypairE,
                            __ZN4chip9Transport16AdminPairingInfo18SetOperationalCertERKNS_4SpanIhEE,
                            __ZN4chip9Transport16AdminPairingInfo22ReleaseOperationalCertEv,
                            __ZN4chip9Transport17AdminPairingTable13AssignAdminIdEt,
                            __ZN4chip9Transport17AdminPairingTable13AssignAdminIdEty,
                            __ZN4chip9Transport17AdminPairingTable14ReleaseAdminIdEt,
                            __ZN4chip9Transport17AdminPairingTable15FindAdminWithIdEt,
                            __ZN4chip9Transport17AdminPairingTable15LoadFromStorageEt,
                            __ZN4chip9Transport17AdminPairingTable16FindAdminForNodeEyyt,
                            __ZN4chip9Transport17AdminPairingTable23SetAdminPairingDelegateEPNS0_25AdminPairingTableDelegateE,
                            __ZN4chip9Transport17AdminPairingTable4InitEPNS_25PersistentStorageDelegateE,
                            __ZN4chip9Transport17AdminPairingTable5ResetEv,
                            __ZN4chip9Transport17AdminPairingTable5StoreEt,
                            __ZN4chip9Transport17AdminPairingTable6DeleteEt,
                            __ZN4chip9Transport3UDP11SendMessageERKNS0_11PeerAddressEONS_6System18PacketBufferHandleE,
                            __ZN4chip9Transport3UDP12OnUdpReceiveEPNS_4Inet15IPEndPointBasisEONS_6System18PacketBufferHandleEPKNS2_12IPPacketInfoE,
                            __ZN4chip9Transport3UDP4InitERNS0_19UdpListenParametersE,
                            __ZN4chip9Transport3UDP5CloseEv,
                            __ZN4chip9Transport3UDPD0Ev,
                            __ZN4chip9Transport3UDPD1Ev,
                            __ZN4chip9Transport3UDPD2Ev,
                            __ZN4chip9Transport7BLEBase10ClearStateEv,
                            __ZN4chip9Transport7BLEBase11SendMessageERKNS0_11PeerAddressEONS_6System18PacketBufferHandleE,
                            __ZN4chip9Transport7BLEBase11SetEndPointEPNS_3Ble11BLEEndPointE,
                            __ZN4chip9Transport7BLEBase16SendAfterConnectEONS_6System18PacketBufferHandleE,
                            __ZN4chip9Transport7BLEBase19ClearPendingPacketsEv,
                            __ZN4chip9Transport7BLEBase20OnBleConnectionErrorEi,
                            __ZN4chip9Transport7BLEBase23OnBleConnectionCompleteEPNS_3Ble11BLEEndPointE,
                            __ZN4chip9Transport7BLEBase25OnEndPointConnectCompleteEPNS_3Ble11BLEEndPointEi,
                            __ZN4chip9Transport7BLEBase25OnEndPointMessageReceivedEPNS_3Ble11BLEEndPointEONS_6System18PacketBufferHandleE,
                            __ZN4chip9Transport7BLEBase26OnEndPointConnectionClosedEPNS_3Ble11BLEEndPointEi,
                            __ZN4chip9Transport7BLEBase4InitERKNS0_19BleListenParametersE,
                            __ZN4chip9Transport7BLEBaseD0Ev,
                            __ZN4chip9Transport7BLEBaseD1Ev,
                            __ZN4chip9Transport7BLEBaseD2Ev,
                            __ZN8Verhoeff14DihedralInvertEii,
                            __ZN8Verhoeff16DihedralMultiplyEiii,
                            __ZN8Verhoeff7PermuteEiPhiy,
                            __ZNK4chip10Controller6Device10GetAddressERNS_4Inet9IPAddressERt,
                            __ZNK4chip11Credentials16CertificateKeyId7IsEqualERKS1_,
                            __ZNK4chip11Credentials18ChipCertificateSet14IsCertInTheSetEPKNS0_19ChipCertificateDataE,
                            __ZNK4chip11Credentials18ChipCertificateSet8FindCertERKNS0_16CertificateKeyIdE,
                            __ZNK4chip11Credentials19ChipCertificateData7IsEqualERKS1_,
                            __ZNK4chip11Credentials24OperationalCredentialSet11FindCertSetERKNS0_16CertificateKeyIdE,
                            __ZNK4chip11Credentials24OperationalCredentialSet15IsTrustedRootInERKNS0_16CertificateKeyIdE,
                            __ZNK4chip11Credentials24OperationalCredentialSet16GetTrustedRootIdEt,
                            __ZNK4chip11Credentials24OperationalCredentialSet19GetNodeCredentialAtERKNS0_16CertificateKeyIdE,
                            __ZNK4chip11Credentials24OperationalCredentialSet23IsCertSetInTheOpCredSetEPKNS0_18ChipCertificateSetE,
                            __ZNK4chip11Credentials6ChipDN11GetCertTypeERh,
                            __ZNK4chip11Credentials6ChipDN13GetCertChipIdERy,
                            __ZNK4chip11Credentials6ChipDN7IsEqualERKS1_,
                            __ZNK4chip11Credentials6ChipDN8RDNCountEv,
                            __ZNK4chip11Credentials7ChipRDN7IsEqualERKS1_,
                            __ZNK4chip11DeviceLayer8Internal23BlePlatformDelegateImpl6GetMTUEPv,
                            __ZNK4chip12PacketHeader15EncodeSizeBytesEv,
                            __ZNK4chip12PacketHeader16EncodeBeforeDataERKNS_6System18PacketBufferHandleE,
                            __ZNK4chip12PacketHeader6EncodeEPhtPt,
                            __ZNK4chip12SetupPayload15getSerialNumberERNSt3__112basic_stringIcNS1_11char_traitsIcEENS1_9allocatorIcEEEE,
                            __ZNK4chip12SetupPayload24getAllOptionalVendorDataEv,
                            __ZNK4chip12SetupPayload24getOptionalExtensionDataEhRNS_27OptionalQRCodeInfoExtensionE,
                            __ZNK4chip13PayloadHeader15EncodeSizeBytesEv,
                            __ZNK4chip13PayloadHeader16EncodeBeforeDataERKNS_6System18PacketBufferHandleE,
                            __ZNK4chip13PayloadHeader6EncodeEPhtPt,
                            __ZNK4chip13SecureSession7DecryptEPKhmPhRKNS_12PacketHeaderERKNS_25MessageAuthenticationCodeE,
                            __ZNK4chip13SecureSession7EncryptEPKhmPhRNS_12PacketHeaderERNS_25MessageAuthenticationCodeE,
                            __ZNK4chip25MessageAuthenticationCode6EncodeERKNS_12PacketHeaderEPhtPt,
                            __ZNK4chip27EncryptedPacketBufferHandle8GetMsgIdEv,
                            __ZNK4chip36SessionEstablishmentExchangeDispatch13ResendMessageENS_19SecureSessionHandleEONS_27EncryptedPacketBufferHandleEPS2_,
                            __ZNK4chip3Ble11BLEEndPoint11IsConnectedEh,
                            __ZNK4chip3Ble11BLEEndPoint20IsUnsubscribePendingEv,
                            __ZNK4chip3Ble38BleTransportCapabilitiesRequestMessage6EncodeERKNS_6System18PacketBufferHandleE,
                            __ZNK4chip3Ble39BleTransportCapabilitiesResponseMessage6EncodeERKNS_6System18PacketBufferHandleE,
                            __ZNK4chip3Ble9BtpEngine10IsValidAckEh,
                            __ZNK4chip3Ble9BtpEngine13LogStateDebugEv,
                            __ZNK4chip3Ble9BtpEngine14HasUnackedDataEv,
                            __ZNK4chip3Ble9BtpEngine8LogStateEv,
                            __ZNK4chip3TLV9TLVReader11ElementTypeEv,
                            __ZNK4chip3TLV9TLVReader18FindElementWithTagEyRS1_,
                            __ZNK4chip3TLV9TLVReader20GetElementHeadLengthERh,
                            __ZNK4chip3TLV9TLVReader7GetTypeEv,
                            __ZNK4chip3TLV9TLVReader9GetLengthEv,
                            __ZNK4chip3app10ReadClient11GetStateStrEv,
                            __ZNK4chip3app10ReportData6Parser16GetEventDataListEPNS0_9EventList6ParserE,
                            __ZNK4chip3app10ReportData6Parser17GetSubscriptionIdEPy,
                            __ZNK4chip3app10ReportData6Parser19GetSuppressResponseEPb,
                            __ZNK4chip3app10ReportData6Parser20GetAttributeDataListEPNS0_17AttributeDataList6ParserE,
                            __ZNK4chip3app10ReportData6Parser22GetMoreChunkedMessagesEPb,
                            __ZNK4chip3app11CommandPath6Parser10GetGroupIdEPt,
                            __ZNK4chip3app11CommandPath6Parser12GetClusterIdEPt,
                            __ZNK4chip3app11CommandPath6Parser12GetCommandIdEPh,
                            __ZNK4chip3app11CommandPath6Parser13GetEndpointIdEPh,
                            __ZNK4chip3app11ReadHandler11GetStateStrEv,
                            __ZNK4chip3app11ReadRequest6Parser14GetEventNumberEPy,
                            __ZNK4chip3app11ReadRequest6Parser16GetEventPathListEPNS0_13EventPathList6ParserE,
                            __ZNK4chip3app11ReadRequest6Parser20GetAttributePathListEPNS0_17AttributePathList6ParserE,
                            __ZNK4chip3app11ReadRequest6Parser27GetAttributeDataVersionListEPNS0_24AttributeDataVersionList6ParserE,
                            __ZNK4chip3app13AttributePath6Parser10GetFieldIdEPh,
                            __ZNK4chip3app13AttributePath6Parser12GetClusterIdEPt,
                            __ZNK4chip3app13AttributePath6Parser12GetListIndexEPt,
                            __ZNK4chip3app13AttributePath6Parser13GetEndpointIdEPh,
                            __ZNK4chip3app13AttributePath6Parser9GetNodeIdEPy,
                            __ZNK4chip3app13InvokeCommand6Parser14GetCommandListEPNS0_11CommandList6ParserE,
                            __ZNK4chip3app13StatusElement6Parser19DecodeStatusElementEPNS_9Protocols13SecureChannel17GeneralStatusCodeEPjPt,
                            __ZNK4chip3app15EventManagement17GetPriorityBufferENS0_13PriorityLevelE,
                            __ZNK4chip3app16EventDataElement6Parser7GetDataEPNS_3TLV9TLVReaderE,
                            __ZNK4chip3app16EventDataElement6Parser9ParseDataERNS_3TLV9TLVReaderEi,
                            __ZNK4chip3app18CommandDataElement6Parser14GetCommandPathEPNS0_11CommandPath6ParserE,
                            __ZNK4chip3app18CommandDataElement6Parser16GetStatusElementEPNS0_13StatusElement6ParserE,
                            __ZNK4chip3app18CommandDataElement6Parser7GetDataEPNS_3TLV9TLVReaderE,
                            __ZNK4chip3app18CommandDataElement6Parser9ParseDataERNS_3TLV9TLVReaderEi,
                            __ZNK4chip3app19CircularEventBuffer29IsFinalDestinationForPriorityENS0_13PriorityLevelE,
                            __ZNK4chip3app20AttributeDataElement6Parser14GetDataVersionEPy,
                            __ZNK4chip3app20AttributeDataElement6Parser16GetAttributePathEPNS0_13AttributePath6ParserE,
                            __ZNK4chip3app20AttributeDataElement6Parser22GetMoreClusterDataFlagEPb,
                            __ZNK4chip3app20AttributeDataElement6Parser7GetDataEPNS_3TLV9TLVReaderE,
                            __ZNK4chip3app20AttributeDataElement6Parser9ParseDataERNS_3TLV9TLVReaderEi,
                            __ZNK4chip3app22InteractionModelEngine23GetReadClientArrayIndexEPKNS0_10ReadClientE,
                            __ZNK4chip3app6Parser14GetReaderOnTagEyPNS_3TLV9TLVReaderE,
                            __ZNK4chip3app7Command11GetStateStrEv,
                            __ZNK4chip3app9EventPath6Parser10GetEventIdEPt,
                            __ZNK4chip3app9EventPath6Parser12GetClusterIdEPt,
                            __ZNK4chip3app9EventPath6Parser13GetEndpointIdEPh,
                            __ZNK4chip3app9EventPath6Parser9GetNodeIdEPy,
                            __ZNK4chip4ASN110ASN1Reader11IsContainedEv,
                            __ZNK4chip4ASN110ASN1Writer16GetLengthWrittenEv,
                            __ZNK4chip4Inet11TCPEndPoint11GetPeerInfoEPNS0_9IPAddressEPt,
                            __ZNK4chip4Inet8IPPrefix12MatchAddressERKNS0_9IPAddressE,
                            __ZNK4chip4Inet8IPPrefix6IsZeroEv,
                            __ZNK4chip4Inet8IPPrefixeqERKS1_,
                            __ZNK4chip4Inet8IPPrefixneERKS1_,
                            __ZNK4chip4Inet9IPAddress11InterfaceIdEv,
                            __ZNK4chip4Inet9IPAddress11IsMulticastEv,
                            __ZNK4chip4Inet9IPAddress12WriteAddressERPh,
                            __ZNK4chip4Inet9IPAddress15IsIPv4BroadcastEv,
                            __ZNK4chip4Inet9IPAddress15IsIPv4MulticastEv,
                            __ZNK4chip4Inet9IPAddress15IsIPv6LinkLocalEv,
                            __ZNK4chip4Inet9IPAddress15IsIPv6MulticastEv,
                            __ZNK4chip4Inet9IPAddress19IsIPv6GlobalUnicastEv,
                            __ZNK4chip4Inet9IPAddress4TypeEv,
                            __ZNK4chip4Inet9IPAddress6IsIPv4Ev,
                            __ZNK4chip4Inet9IPAddress6IsIPv6Ev,
                            __ZNK4chip4Inet9IPAddress6SubnetEv,
                            __ZNK4chip4Inet9IPAddress6ToIPv4Ev,
                            __ZNK4chip4Inet9IPAddress6ToIPv6Ev,
                            __ZNK4chip4Inet9IPAddress8GlobalIdEv,
                            __ZNK4chip4Inet9IPAddress8ToStringEPcj,
                            __ZNK4chip4Inet9IPAddress9IsIPv6ULAEv,
                            __ZNK4chip4Inet9IPAddresseqERKS1_,
                            __ZNK4chip4Inet9IPAddressneERKS1_,
                            __ZNK4chip6Crypto11P256Keypair18ECDH_derive_secretERKNS0_13P256PublicKeyERNS0_19CapacityBoundBufferILm32EEE,
                            __ZNK4chip6Crypto11P256Keypair9SerializeERNS0_19CapacityBoundBufferILm97EEE,
                            __ZNK4chip6Crypto13P256PublicKey28ECDSA_validate_msg_signatureEPKhmRKNS0_19CapacityBoundBufferILm72EEE,
                            __ZNK4chip6Crypto13P256PublicKey29ECDSA_validate_hash_signatureEPKhmRKNS0_19CapacityBoundBufferILm72EEE,
                            __ZNK4chip6System12PacketBuffer12ReservedSizeEv,
                            __ZNK4chip6System12PacketBuffer13MaxDataLengthEv,
                            __ZNK4chip6System12PacketBuffer19AvailableDataLengthEv,
                            __ZNK4chip6System12PacketBuffer4ReadEPhm,
                            __ZNK4chip6System18PacketBufferHandle9CloneDataEv,
                            __ZNK4chip6System5Layer15GetPlatformDataEv,
                            __ZNK4chip9Messaging15ExchangeContext11IsInitiatorEv,
                            __ZNK4chip9Messaging15ExchangeContext18IsResponseExpectedEv,
                            __ZNK4chip9Messaging22ReliableMessageContext10IsOccupiedEv,
                            __ZNK4chip9Messaging22ReliableMessageContext12IsAckPendingEv,
                            __ZNK4chip9Messaging22ReliableMessageContext14AutoRequestAckEv,
                            __ZNK4chip9Messaging22ReliableMessageContext18HasRcvdMsgFromPeerEv,
                            __ZNK4chip9Messaging22ReliableMessageContext18ShouldDropAckDebugEv,
                            __ZNK4chip9Messaging22ReliableMessageContext19HasPeerRequestedAckEv,
                            __ZNK4chip9Messaging27ApplicationExchangeDispatch13ResendMessageENS_19SecureSessionHandleEONS_27EncryptedPacketBufferHandleEPS3_,
                            __ZTI31CHIPDevicePairingDelegateBridge,
                            __ZTI34CHIPOperationalCredentialsDelegate,
                            __ZTI35CHIPPersistentStorageDelegateBridge,
                            __ZTIN4chip11DeviceLayer8Internal23BlePlatformDelegateImplE,
                            __ZTIN4chip11DeviceLayer8Internal25BleConnectionDelegateImplE,
                            __ZTIN4chip11DeviceLayer8Internal26BleApplicationDelegateImplE,
                            __ZTS31CHIPDevicePairingDelegateBridge,
                            __ZTS34CHIPOperationalCredentialsDelegate,
                            __ZTS35CHIPPersistentStorageDelegateBridge,
                            __ZTSN4chip11DeviceLayer8Internal23BlePlatformDelegateImplE,
                            __ZTSN4chip11DeviceLayer8Internal25BleConnectionDelegateImplE,
                            __ZTSN4chip11DeviceLayer8Internal26BleApplicationDelegateImplE,
                            __ZTV31CHIPDevicePairingDelegateBridge,
                            __ZTV34CHIPOperationalCredentialsDelegate,
                            __ZTV35CHIPPersistentStorageDelegateBridge,
                            __ZTVN4chip10Controller16DeviceControllerE,
                            __ZTVN4chip10Controller18DeviceCommissionerE,
                            __ZTVN4chip10Controller40DeviceControllerInteractionModelDelegateE,
                            __ZTVN4chip10Controller6DeviceE,
                            __ZTVN4chip11CASESessionE,
                            __ZTVN4chip11DeviceLayer8Internal23BlePlatformDelegateImplE,
                            __ZTVN4chip11DeviceLayer8Internal25BleConnectionDelegateImplE,
                            __ZTVN4chip11DeviceLayer8Internal26BleApplicationDelegateImplE,
                            __ZTVN4chip11PASESessionE,
                            __ZTVN4chip14secure_channel21MessageCounterManagerE,
                            __ZTVN4chip16PersistedCounterE,
                            __ZTVN4chip16SecureSessionMgrE,
                            __ZTVN4chip16TransportMgrBaseE,
                            __ZTVN4chip24LifetimePersistedCounterE,
                            __ZTVN4chip30MonotonicallyIncreasingCounterE,
                            __ZTVN4chip36SessionEstablishmentExchangeDispatchE,
                            __ZTVN4chip3TLV21CHIPCircularTLVBufferE,
                            __ZTVN4chip3app10ReadClientE,
                            __ZTVN4chip3app13CommandSenderE,
                            __ZTVN4chip3app14CommandHandlerE,
                            __ZTVN4chip3app22InteractionModelEngineE,
                            __ZTVN4chip3app26CircularEventBufferWrapperE,
                            __ZTVN4chip4Mdns21DiscoveryImplPlatformE,
                            __ZTVN4chip6Crypto11P256KeypairE,
                            __ZTVN4chip6Crypto13P256PublicKeyE,
                            __ZTVN4chip6Crypto13PBKDF2_sha256E,
                            __ZTVN4chip6Crypto29Spake2p_P256_SHA256_HKDF_HMACE,
                            __ZTVN4chip6Crypto7Spake2pE,
                            __ZTVN4chip6Crypto8HKDF_shaE,
                            __ZTVN4chip6System27TLVPacketBufferBackingStoreE,
                            __ZTVN4chip9Messaging15ExchangeManagerE,
                            __ZTVN4chip9Messaging23ExchangeMessageDispatchE,
                            __ZTVN4chip9Messaging27ApplicationExchangeDispatchE,
                            __ZTVN4chip9Transport3UDPE,
                            __ZTVN4chip9Transport7BLEBaseE,
                            __ZThn115088_N4chip10Controller18DeviceCommissioner20OnSessionEstablishedEv,
                            __ZThn115088_N4chip10Controller18DeviceCommissioner27OnSessionEstablishmentErrorEi,
                            __ZThn16_N4chip10Controller16DeviceController16OnNodeIdResolvedERKNS_4Mdns16ResolvedNodeDataE,
                            __ZThn16_N4chip10Controller16DeviceController24OnNodeIdResolutionFailedERKNS_6PeerIdEi,
                            __ZThn16_N4chip10Controller16DeviceController25OnCommissionableNodeFoundERKNS_4Mdns22CommissionableNodeDataE,
                            __ZThn16_N4chip10Controller18DeviceCommissioner16OnNodeIdResolvedERKNS_4Mdns16ResolvedNodeDataE,
                            __ZThn16_N4chip10Controller18DeviceCommissioner24OnNodeIdResolutionFailedERKNS_6PeerIdEi,
                            __ZThn16_N4chip9Transport7BLEBase11SetEndPointEPNS_3Ble11BLEEndPointE,
                            __ZThn16_N4chip9Transport7BLEBase20OnBleConnectionErrorEi,
                            __ZThn16_N4chip9Transport7BLEBase23OnBleConnectionCompleteEPNS_3Ble11BLEEndPointE,
                            __ZThn16_N4chip9Transport7BLEBase25OnEndPointConnectCompleteEPNS_3Ble11BLEEndPointEi,
                            __ZThn16_N4chip9Transport7BLEBase25OnEndPointMessageReceivedEPNS_3Ble11BLEEndPointEONS_6System18PacketBufferHandleE,
                            __ZThn16_N4chip9Transport7BLEBase26OnEndPointConnectionClosedEPNS_3Ble11BLEEndPointEi,
                            __ZThn16_N4chip9Transport7BLEBaseD0Ev,
                            __ZThn16_N4chip9Transport7BLEBaseD1Ev,
                            __ZThn272_N4chip3app13CommandSender17OnMessageReceivedEPNS_9Messaging15ExchangeContextERKNS_12PacketHeaderERKNS_13PayloadHeaderEONS_6System18PacketBufferHandleE,
                            __ZThn272_N4chip3app13CommandSender17OnResponseTimeoutEPNS_9Messaging15ExchangeContextE,
                            __ZThn8_N31CHIPDevicePairingDelegateBridge23OnAddressUpdateCompleteEyi,
                            __ZThn8_N31CHIPDevicePairingDelegateBridgeD0Ev,
                            __ZThn8_N31CHIPDevicePairingDelegateBridgeD1Ev,
                            __ZThn8_N4chip10Controller16DeviceController15OnNewConnectionENS_19SecureSessionHandleEPNS_9Messaging15ExchangeManagerE,
                            __ZThn8_N4chip10Controller16DeviceController19OnConnectionExpiredENS_19SecureSessionHandleEPNS_9Messaging15ExchangeManagerE,
                            __ZThn8_N4chip10Controller6Device20OnSessionEstablishedEv,
                            __ZThn8_N4chip10Controller6Device27OnSessionEstablishmentErrorEi,
                            __ZThn8_N4chip10Controller6DeviceD0Ev,
                            __ZThn8_N4chip10Controller6DeviceD1Ev,
                            __ZThn8_N4chip11CASESession19DeriveSecureSessionERNS_13SecureSessionENS1_11SessionRoleE,
                            __ZThn8_N4chip11CASESessionD0Ev,
                            __ZThn8_N4chip11CASESessionD1Ev,
                            __ZThn8_N4chip11PASESession19DeriveSecureSessionERNS_13SecureSessionENS1_11SessionRoleE,
                            __ZThn8_N4chip11PASESessionD0Ev,
                            __ZThn8_N4chip11PASESessionD1Ev,
                            __ZThn8_N4chip14secure_channel21MessageCounterManager32QueueReceivedMessageAndStartSyncERKNS_12PacketHeaderENS_19SecureSessionHandleEPNS_9Transport19PeerConnectionStateERKNS6_11PeerAddressEONS_6System18PacketBufferHandleE,
                            __ZThn8_N4chip14secure_channel21MessageCounterManager9StartSyncENS_19SecureSessionHandleEPNS_9Transport19PeerConnectionStateE,
                            __ZThn8_N4chip4Mdns21DiscoveryImplPlatform13ResolveNodeIdERKNS_6PeerIdENS_4Inet13IPAddressTypeE,
                            __ZThn8_N4chip4Mdns21DiscoveryImplPlatform19SetResolverDelegateEPNS0_16ResolverDelegateE,
                            __ZThn8_N4chip9Messaging15ExchangeManager17OnMessageReceivedERKNS_9Transport11PeerAddressEONS_6System18PacketBufferHandleE,
                            _afDeviceEnabled, _appResponseData, _appResponseLength,
                            _attributeData, _curCmd, _emAfCommandApsFrame,
                            _emAfCurrentCommand,
                            _emAfDeviceIsPerformingKeyEstablishment,
                            _emAfEndpoints, _emAfEventStrings, _emAfEvents,
                            _emAfExchangeMgr, _emAfExtendedPanId,
                            _emAfPluginReportVolatileData,
                            _emAfResponseLengthPtr, _emAfSyncingTime,
                            _emAfZclBuffer, _emAfZclBufferLen,
                            _emberAfIncomingZclSequenceNumber, _emberAfNullEui64,
                            _emberAfPluginIasZoneClientStateMachineEventControl,
                            _emberAfPluginReportingTickEventControl,
                            _emberAfPrintReceivedMessages,
                            _emberAfResponseApsFrame,
                            _emberAfResponseDestination, _emberAfResponseType,
                            _emberAfSequenceNumber, _emberEndpointCount,
                            _gCallbacks, _mbedtls_aes_crypt_cbc,
                            _mbedtls_aes_crypt_cfb128, _mbedtls_aes_crypt_cfb8,
                            _mbedtls_aes_crypt_ctr, _mbedtls_aes_crypt_ecb,
                            _mbedtls_aes_crypt_ofb, _mbedtls_aes_crypt_xts,
                            _mbedtls_aes_decrypt, _mbedtls_aes_encrypt,
                            _mbedtls_aes_free, _mbedtls_aes_init,
                            _mbedtls_aes_self_test, _mbedtls_aes_setkey_dec,
                            _mbedtls_aes_setkey_enc, _mbedtls_aes_xts_free,
                            _mbedtls_aes_xts_init, _mbedtls_aes_xts_setkey_dec,
                            _mbedtls_aes_xts_setkey_enc, _mbedtls_arc4_crypt,
                            _mbedtls_arc4_free, _mbedtls_arc4_init,
                            _mbedtls_arc4_self_test, _mbedtls_arc4_setup,
                            _mbedtls_asn1_find_named_data,
                            _mbedtls_asn1_free_named_data,
                            _mbedtls_asn1_free_named_data_list,
                            _mbedtls_asn1_get_alg, _mbedtls_asn1_get_alg_null,
                            _mbedtls_asn1_get_bitstring,
                            _mbedtls_asn1_get_bitstring_null,
                            _mbedtls_asn1_get_bool, _mbedtls_asn1_get_int,
                            _mbedtls_asn1_get_len, _mbedtls_asn1_get_mpi,
                            _mbedtls_asn1_get_sequence_of, _mbedtls_asn1_get_tag,
                            _mbedtls_asn1_store_named_data,
                            _mbedtls_asn1_write_algorithm_identifier,
                            _mbedtls_asn1_write_bitstring,
                            _mbedtls_asn1_write_bool,
                            _mbedtls_asn1_write_ia5_string,
                            _mbedtls_asn1_write_int, _mbedtls_asn1_write_len,
                            _mbedtls_asn1_write_mpi,
                            _mbedtls_asn1_write_named_bitstring,
                            _mbedtls_asn1_write_null,
                            _mbedtls_asn1_write_octet_string,
                            _mbedtls_asn1_write_oid,
                            _mbedtls_asn1_write_printable_string,
                            _mbedtls_asn1_write_raw_buffer,
                            _mbedtls_asn1_write_tag,
                            _mbedtls_asn1_write_tagged_string,
                            _mbedtls_asn1_write_utf8_string,
                            _mbedtls_base64_decode, _mbedtls_base64_encode,
                            _mbedtls_base64_self_test,
                            _mbedtls_blowfish_crypt_cbc,
                            _mbedtls_blowfish_crypt_cfb64,
                            _mbedtls_blowfish_crypt_ctr,
                            _mbedtls_blowfish_crypt_ecb, _mbedtls_blowfish_free,
                            _mbedtls_blowfish_init, _mbedtls_blowfish_setkey,
                            _mbedtls_camellia_crypt_cbc,
                            _mbedtls_camellia_crypt_cfb128,
                            _mbedtls_camellia_crypt_ctr,
                            _mbedtls_camellia_crypt_ecb, _mbedtls_camellia_free,
                            _mbedtls_camellia_init, _mbedtls_camellia_self_test,
                            _mbedtls_camellia_setkey_dec,
                            _mbedtls_camellia_setkey_enc,
                            _mbedtls_ccm_auth_decrypt,
                            _mbedtls_ccm_encrypt_and_tag, _mbedtls_ccm_free,
                            _mbedtls_ccm_init, _mbedtls_ccm_self_test,
                            _mbedtls_ccm_setkey, _mbedtls_ccm_star_auth_decrypt,
                            _mbedtls_ccm_star_encrypt_and_tag,
                            _mbedtls_chacha20_crypt, _mbedtls_chacha20_free,
                            _mbedtls_chacha20_init, _mbedtls_chacha20_self_test,
                            _mbedtls_chacha20_setkey, _mbedtls_chacha20_starts,
                            _mbedtls_chacha20_update,
                            _mbedtls_chachapoly_auth_decrypt,
                            _mbedtls_chachapoly_encrypt_and_tag,
                            _mbedtls_chachapoly_finish, _mbedtls_chachapoly_free,
                            _mbedtls_chachapoly_init,
                            _mbedtls_chachapoly_self_test,
                            _mbedtls_chachapoly_setkey,
                            _mbedtls_chachapoly_starts,
                            _mbedtls_chachapoly_update,
                            _mbedtls_chachapoly_update_aad,
                            _mbedtls_cipher_auth_decrypt,
                            _mbedtls_cipher_auth_encrypt,
                            _mbedtls_cipher_check_tag, _mbedtls_cipher_crypt,
                            _mbedtls_cipher_definitions, _mbedtls_cipher_finish,
                            _mbedtls_cipher_free,
                            _mbedtls_cipher_info_from_string,
                            _mbedtls_cipher_info_from_type,
                            _mbedtls_cipher_info_from_values,
                            _mbedtls_cipher_init, _mbedtls_cipher_list,
                            _mbedtls_cipher_reset, _mbedtls_cipher_set_iv,
                            _mbedtls_cipher_set_padding_mode,
                            _mbedtls_cipher_setkey, _mbedtls_cipher_setup,
                            _mbedtls_cipher_supported, _mbedtls_cipher_update,
                            _mbedtls_cipher_update_ad, _mbedtls_cipher_write_tag,
                            _mbedtls_ctr_drbg_free, _mbedtls_ctr_drbg_init,
                            _mbedtls_ctr_drbg_random,
                            _mbedtls_ctr_drbg_random_with_add,
                            _mbedtls_ctr_drbg_reseed, _mbedtls_ctr_drbg_seed,
                            _mbedtls_ctr_drbg_seed_entropy_len,
                            _mbedtls_ctr_drbg_self_test,
                            _mbedtls_ctr_drbg_set_entropy_len,
                            _mbedtls_ctr_drbg_set_prediction_resistance,
                            _mbedtls_ctr_drbg_set_reseed_interval,
                            _mbedtls_ctr_drbg_update,
                            _mbedtls_ctr_drbg_update_ret,
                            _mbedtls_ctr_drbg_update_seed_file,
                            _mbedtls_ctr_drbg_write_seed_file,
                            _mbedtls_des3_crypt_cbc, _mbedtls_des3_crypt_ecb,
                            _mbedtls_des3_free, _mbedtls_des3_init,
                            _mbedtls_des3_set2key_dec, _mbedtls_des3_set2key_enc,
                            _mbedtls_des3_set3key_dec, _mbedtls_des3_set3key_enc,
                            _mbedtls_des_crypt_cbc, _mbedtls_des_crypt_ecb,
                            _mbedtls_des_free, _mbedtls_des_init,
                            _mbedtls_des_key_check_key_parity,
                            _mbedtls_des_key_check_weak,
                            _mbedtls_des_key_set_parity, _mbedtls_des_self_test,
                            _mbedtls_des_setkey, _mbedtls_des_setkey_dec,
                            _mbedtls_des_setkey_enc, _mbedtls_ecdh_calc_secret,
                            _mbedtls_ecdh_compute_shared, _mbedtls_ecdh_free,
                            _mbedtls_ecdh_gen_public, _mbedtls_ecdh_get_params,
                            _mbedtls_ecdh_init, _mbedtls_ecdh_make_params,
                            _mbedtls_ecdh_make_public, _mbedtls_ecdh_read_params,
                            _mbedtls_ecdh_read_public, _mbedtls_ecdh_setup,
                            _mbedtls_ecdsa_free, _mbedtls_ecdsa_from_keypair,
                            _mbedtls_ecdsa_genkey, _mbedtls_ecdsa_info,
                            _mbedtls_ecdsa_init, _mbedtls_ecdsa_read_signature,
                            _mbedtls_ecdsa_read_signature_restartable,
                            _mbedtls_ecdsa_sign, _mbedtls_ecdsa_sign_det,
                            _mbedtls_ecdsa_verify,
                            _mbedtls_ecdsa_write_signature,
                            _mbedtls_ecdsa_write_signature_det,
                            _mbedtls_ecdsa_write_signature_restartable,
                            _mbedtls_eckey_info, _mbedtls_eckeydh_info,
                            _mbedtls_ecp_check_privkey,
                            _mbedtls_ecp_check_pub_priv,
                            _mbedtls_ecp_check_pubkey, _mbedtls_ecp_copy,
                            _mbedtls_ecp_curve_info_from_grp_id,
                            _mbedtls_ecp_curve_info_from_name,
                            _mbedtls_ecp_curve_info_from_tls_id,
                            _mbedtls_ecp_curve_list, _mbedtls_ecp_gen_key,
                            _mbedtls_ecp_gen_keypair,
                            _mbedtls_ecp_gen_keypair_base,
                            _mbedtls_ecp_gen_privkey, _mbedtls_ecp_get_type,
                            _mbedtls_ecp_group_copy, _mbedtls_ecp_group_free,
                            _mbedtls_ecp_group_init, _mbedtls_ecp_group_load,
                            _mbedtls_ecp_grp_id_list, _mbedtls_ecp_is_zero,
                            _mbedtls_ecp_keypair_free, _mbedtls_ecp_keypair_init,
                            _mbedtls_ecp_mul, _mbedtls_ecp_mul_restartable,
                            _mbedtls_ecp_muladd, _mbedtls_ecp_muladd_restartable,
                            _mbedtls_ecp_point_cmp, _mbedtls_ecp_point_free,
                            _mbedtls_ecp_point_init,
                            _mbedtls_ecp_point_read_binary,
                            _mbedtls_ecp_point_read_string,
                            _mbedtls_ecp_point_write_binary,
                            _mbedtls_ecp_read_key, _mbedtls_ecp_self_test,
                            _mbedtls_ecp_set_zero, _mbedtls_ecp_tls_read_group,
                            _mbedtls_ecp_tls_read_group_id,
                            _mbedtls_ecp_tls_read_point,
                            _mbedtls_ecp_tls_write_group,
                            _mbedtls_ecp_tls_write_point,
                            _mbedtls_entropy_add_source, _mbedtls_entropy_free,
                            _mbedtls_entropy_func, _mbedtls_entropy_gather,
                            _mbedtls_entropy_init, _mbedtls_entropy_self_test,
                            _mbedtls_entropy_update_manual,
                            _mbedtls_entropy_update_seed_file,
                            _mbedtls_entropy_write_seed_file,
                            _mbedtls_gcm_auth_decrypt,
                            _mbedtls_gcm_crypt_and_tag, _mbedtls_gcm_finish,
                            _mbedtls_gcm_free, _mbedtls_gcm_init,
                            _mbedtls_gcm_self_test, _mbedtls_gcm_setkey,
                            _mbedtls_gcm_starts, _mbedtls_gcm_update,
                            _mbedtls_hardclock_poll, _mbedtls_hkdf,
                            _mbedtls_hkdf_expand, _mbedtls_hkdf_extract,
                            _mbedtls_hmac_drbg_free, _mbedtls_hmac_drbg_init,
                            _mbedtls_hmac_drbg_random,
                            _mbedtls_hmac_drbg_random_with_add,
                            _mbedtls_hmac_drbg_reseed, _mbedtls_hmac_drbg_seed,
                            _mbedtls_hmac_drbg_seed_buf,
                            _mbedtls_hmac_drbg_self_test,
                            _mbedtls_hmac_drbg_set_entropy_len,
                            _mbedtls_hmac_drbg_set_prediction_resistance,
                            _mbedtls_hmac_drbg_set_reseed_interval,
                            _mbedtls_hmac_drbg_update,
                            _mbedtls_hmac_drbg_update_ret,
                            _mbedtls_hmac_drbg_update_seed_file,
                            _mbedtls_hmac_drbg_write_seed_file,
                            _mbedtls_internal_aes_decrypt,
                            _mbedtls_internal_aes_encrypt,
                            _mbedtls_internal_md5_process,
                            _mbedtls_internal_ripemd160_process,
                            _mbedtls_internal_sha1_process,
                            _mbedtls_internal_sha256_process,
                            _mbedtls_internal_sha512_process, _mbedtls_md,
                            _mbedtls_md5, _mbedtls_md5_clone, _mbedtls_md5_finish,
                            _mbedtls_md5_finish_ret, _mbedtls_md5_free,
                            _mbedtls_md5_info, _mbedtls_md5_init,
                            _mbedtls_md5_process, _mbedtls_md5_ret,
                            _mbedtls_md5_self_test, _mbedtls_md5_starts,
                            _mbedtls_md5_starts_ret, _mbedtls_md5_update,
                            _mbedtls_md5_update_ret, _mbedtls_md_clone,
                            _mbedtls_md_file, _mbedtls_md_finish, _mbedtls_md_free,
                            _mbedtls_md_get_name, _mbedtls_md_get_size,
                            _mbedtls_md_get_type, _mbedtls_md_hmac,
                            _mbedtls_md_hmac_finish, _mbedtls_md_hmac_reset,
                            _mbedtls_md_hmac_starts, _mbedtls_md_hmac_update,
                            _mbedtls_md_info_from_string,
                            _mbedtls_md_info_from_type, _mbedtls_md_init,
                            _mbedtls_md_init_ctx, _mbedtls_md_list,
                            _mbedtls_md_process, _mbedtls_md_setup,
                            _mbedtls_md_starts, _mbedtls_md_update,
                            _mbedtls_mpi_add_abs, _mbedtls_mpi_add_int,
                            _mbedtls_mpi_add_mpi, _mbedtls_mpi_bitlen,
                            _mbedtls_mpi_cmp_abs, _mbedtls_mpi_cmp_int,
                            _mbedtls_mpi_cmp_mpi, _mbedtls_mpi_copy,
                            _mbedtls_mpi_div_int, _mbedtls_mpi_div_mpi,
                            _mbedtls_mpi_exp_mod, _mbedtls_mpi_fill_random,
                            _mbedtls_mpi_free, _mbedtls_mpi_gcd,
                            _mbedtls_mpi_gen_prime, _mbedtls_mpi_get_bit,
                            _mbedtls_mpi_grow, _mbedtls_mpi_init,
                            _mbedtls_mpi_inv_mod, _mbedtls_mpi_is_prime,
                            _mbedtls_mpi_is_prime_ext, _mbedtls_mpi_lsb,
                            _mbedtls_mpi_lset, _mbedtls_mpi_mod_int,
                            _mbedtls_mpi_mod_mpi, _mbedtls_mpi_mul_int,
                            _mbedtls_mpi_mul_mpi, _mbedtls_mpi_read_binary,
                            _mbedtls_mpi_read_binary_le, _mbedtls_mpi_read_file,
                            _mbedtls_mpi_read_string,
                            _mbedtls_mpi_safe_cond_assign,
                            _mbedtls_mpi_safe_cond_swap, _mbedtls_mpi_self_test,
                            _mbedtls_mpi_set_bit, _mbedtls_mpi_shift_l,
                            _mbedtls_mpi_shift_r, _mbedtls_mpi_shrink,
                            _mbedtls_mpi_size, _mbedtls_mpi_sub_abs,
                            _mbedtls_mpi_sub_int, _mbedtls_mpi_sub_mpi,
                            _mbedtls_mpi_swap, _mbedtls_mpi_write_binary,
                            _mbedtls_mpi_write_binary_le,
                            _mbedtls_mpi_write_file, _mbedtls_mpi_write_string,
                            _mbedtls_oid_get_attr_short_name,
                            _mbedtls_oid_get_certificate_policies,
                            _mbedtls_oid_get_cipher_alg, _mbedtls_oid_get_ec_grp,
                            _mbedtls_oid_get_extended_key_usage,
                            _mbedtls_oid_get_md_alg, _mbedtls_oid_get_md_hmac,
                            _mbedtls_oid_get_numeric_string,
                            _mbedtls_oid_get_oid_by_ec_grp,
                            _mbedtls_oid_get_oid_by_md,
                            _mbedtls_oid_get_oid_by_pk_alg,
                            _mbedtls_oid_get_oid_by_sig_alg,
                            _mbedtls_oid_get_pk_alg,
                            _mbedtls_oid_get_pkcs12_pbe_alg,
                            _mbedtls_oid_get_sig_alg,
                            _mbedtls_oid_get_sig_alg_desc,
                            _mbedtls_oid_get_x509_ext_type, _mbedtls_pem_free,
                            _mbedtls_pem_init, _mbedtls_pem_read_buffer,
                            _mbedtls_pem_write_buffer, _mbedtls_pk_can_do,
                            _mbedtls_pk_check_pair, _mbedtls_pk_debug,
                            _mbedtls_pk_decrypt, _mbedtls_pk_encrypt,
                            _mbedtls_pk_free, _mbedtls_pk_get_bitlen,
                            _mbedtls_pk_get_name, _mbedtls_pk_get_type,
                            _mbedtls_pk_info_from_type, _mbedtls_pk_init,
                            _mbedtls_pk_load_file, _mbedtls_pk_parse_key,
                            _mbedtls_pk_parse_keyfile,
                            _mbedtls_pk_parse_public_key,
                            _mbedtls_pk_parse_public_keyfile,
                            _mbedtls_pk_parse_subpubkey, _mbedtls_pk_setup,
                            _mbedtls_pk_setup_rsa_alt, _mbedtls_pk_sign,
                            _mbedtls_pk_sign_restartable, _mbedtls_pk_verify,
                            _mbedtls_pk_verify_ext,
                            _mbedtls_pk_verify_restartable,
                            _mbedtls_pk_write_key_der, _mbedtls_pk_write_key_pem,
                            _mbedtls_pk_write_pubkey,
                            _mbedtls_pk_write_pubkey_der,
                            _mbedtls_pk_write_pubkey_pem,
                            _mbedtls_pkcs12_derivation, _mbedtls_pkcs12_pbe,
                            _mbedtls_pkcs12_pbe_sha1_rc4_128,
                            _mbedtls_pkcs5_pbes2, _mbedtls_pkcs5_pbkdf2_hmac,
                            _mbedtls_pkcs5_self_test,
                            _mbedtls_platform_entropy_poll,
                            _mbedtls_platform_gmtime_r,
                            _mbedtls_platform_zeroize, _mbedtls_poly1305_finish,
                            _mbedtls_poly1305_free, _mbedtls_poly1305_init,
                            _mbedtls_poly1305_mac, _mbedtls_poly1305_self_test,
                            _mbedtls_poly1305_starts, _mbedtls_poly1305_update,
                            _mbedtls_ripemd160, _mbedtls_ripemd160_clone,
                            _mbedtls_ripemd160_finish,
                            _mbedtls_ripemd160_finish_ret,
                            _mbedtls_ripemd160_free, _mbedtls_ripemd160_info,
                            _mbedtls_ripemd160_init, _mbedtls_ripemd160_process,
                            _mbedtls_ripemd160_ret, _mbedtls_ripemd160_self_test,
                            _mbedtls_ripemd160_starts,
                            _mbedtls_ripemd160_starts_ret,
                            _mbedtls_ripemd160_update,
                            _mbedtls_ripemd160_update_ret, _mbedtls_rsa_alt_info,
                            _mbedtls_rsa_check_privkey,
                            _mbedtls_rsa_check_pub_priv,
                            _mbedtls_rsa_check_pubkey, _mbedtls_rsa_complete,
                            _mbedtls_rsa_copy, _mbedtls_rsa_deduce_crt,
                            _mbedtls_rsa_deduce_primes,
                            _mbedtls_rsa_deduce_private_exponent,
                            _mbedtls_rsa_export, _mbedtls_rsa_export_crt,
                            _mbedtls_rsa_export_raw, _mbedtls_rsa_free,
                            _mbedtls_rsa_gen_key, _mbedtls_rsa_get_len,
                            _mbedtls_rsa_import, _mbedtls_rsa_import_raw,
                            _mbedtls_rsa_info, _mbedtls_rsa_init,
                            _mbedtls_rsa_pkcs1_decrypt,
                            _mbedtls_rsa_pkcs1_encrypt, _mbedtls_rsa_pkcs1_sign,
                            _mbedtls_rsa_pkcs1_verify, _mbedtls_rsa_private,
                            _mbedtls_rsa_public, _mbedtls_rsa_rsaes_oaep_decrypt,
                            _mbedtls_rsa_rsaes_oaep_encrypt,
                            _mbedtls_rsa_rsaes_pkcs1_v15_decrypt,
                            _mbedtls_rsa_rsaes_pkcs1_v15_encrypt,
                            _mbedtls_rsa_rsassa_pkcs1_v15_sign,
                            _mbedtls_rsa_rsassa_pkcs1_v15_verify,
                            _mbedtls_rsa_rsassa_pss_sign,
                            _mbedtls_rsa_rsassa_pss_verify,
                            _mbedtls_rsa_rsassa_pss_verify_ext,
                            _mbedtls_rsa_self_test, _mbedtls_rsa_set_padding,
                            _mbedtls_rsa_validate_crt,
                            _mbedtls_rsa_validate_params, _mbedtls_set_alarm,
                            _mbedtls_sha1, _mbedtls_sha1_clone,
                            _mbedtls_sha1_finish, _mbedtls_sha1_finish_ret,
                            _mbedtls_sha1_free, _mbedtls_sha1_info,
                            _mbedtls_sha1_init, _mbedtls_sha1_process,
                            _mbedtls_sha1_ret, _mbedtls_sha1_self_test,
                            _mbedtls_sha1_starts, _mbedtls_sha1_starts_ret,
                            _mbedtls_sha1_update, _mbedtls_sha1_update_ret,
                            _mbedtls_sha224_info, _mbedtls_sha256,
                            _mbedtls_sha256_clone, _mbedtls_sha256_finish,
                            _mbedtls_sha256_finish_ret, _mbedtls_sha256_free,
                            _mbedtls_sha256_info, _mbedtls_sha256_init,
                            _mbedtls_sha256_process, _mbedtls_sha256_ret,
                            _mbedtls_sha256_self_test, _mbedtls_sha256_starts,
                            _mbedtls_sha256_starts_ret, _mbedtls_sha256_update,
                            _mbedtls_sha256_update_ret, _mbedtls_sha384_info,
                            _mbedtls_sha512, _mbedtls_sha512_clone,
                            _mbedtls_sha512_finish, _mbedtls_sha512_finish_ret,
                            _mbedtls_sha512_free, _mbedtls_sha512_info,
                            _mbedtls_sha512_init, _mbedtls_sha512_process,
                            _mbedtls_sha512_ret, _mbedtls_sha512_self_test,
                            _mbedtls_sha512_starts, _mbedtls_sha512_starts_ret,
                            _mbedtls_sha512_update, _mbedtls_sha512_update_ret,
                            _mbedtls_strerror, _mbedtls_test_ca_crt,
                            _mbedtls_test_ca_crt_ec, _mbedtls_test_ca_crt_ec_len,
                            _mbedtls_test_ca_crt_len, _mbedtls_test_ca_crt_rsa,
                            _mbedtls_test_ca_crt_rsa_len, _mbedtls_test_ca_key,
                            _mbedtls_test_ca_key_ec, _mbedtls_test_ca_key_ec_len,
                            _mbedtls_test_ca_key_len, _mbedtls_test_ca_key_rsa,
                            _mbedtls_test_ca_key_rsa_len, _mbedtls_test_ca_pwd,
                            _mbedtls_test_ca_pwd_ec, _mbedtls_test_ca_pwd_ec_len,
                            _mbedtls_test_ca_pwd_len, _mbedtls_test_ca_pwd_rsa,
                            _mbedtls_test_ca_pwd_rsa_len, _mbedtls_test_cas,
                            _mbedtls_test_cas_len, _mbedtls_test_cas_pem,
                            _mbedtls_test_cas_pem_len, _mbedtls_test_cli_crt,
                            _mbedtls_test_cli_crt_ec,
                            _mbedtls_test_cli_crt_ec_len,
                            _mbedtls_test_cli_crt_len, _mbedtls_test_cli_crt_rsa,
                            _mbedtls_test_cli_crt_rsa_len, _mbedtls_test_cli_key,
                            _mbedtls_test_cli_key_ec,
                            _mbedtls_test_cli_key_ec_len,
                            _mbedtls_test_cli_key_len, _mbedtls_test_cli_key_rsa,
                            _mbedtls_test_cli_key_rsa_len, _mbedtls_test_srv_crt,
                            _mbedtls_test_srv_crt_ec,
                            _mbedtls_test_srv_crt_ec_len,
                            _mbedtls_test_srv_crt_len, _mbedtls_test_srv_crt_rsa,
                            _mbedtls_test_srv_crt_rsa_len, _mbedtls_test_srv_key,
                            _mbedtls_test_srv_key_ec,
                            _mbedtls_test_srv_key_ec_len,
                            _mbedtls_test_srv_key_len, _mbedtls_test_srv_key_rsa,
                            _mbedtls_test_srv_key_rsa_len,
                            _mbedtls_timing_alarmed, _mbedtls_timing_get_delay,
                            _mbedtls_timing_get_timer, _mbedtls_timing_hardclock,
                            _mbedtls_timing_self_test, _mbedtls_timing_set_delay,
                            _mbedtls_x509_crt_check_extended_key_usage,
                            _mbedtls_x509_crt_check_key_usage,
                            _mbedtls_x509_crt_free, _mbedtls_x509_crt_info,
                            _mbedtls_x509_crt_init, _mbedtls_x509_crt_is_revoked,
                            _mbedtls_x509_crt_parse, _mbedtls_x509_crt_parse_der,
                            _mbedtls_x509_crt_parse_der_nocopy,
                            _mbedtls_x509_crt_parse_file,
                            _mbedtls_x509_crt_parse_path,
                            _mbedtls_x509_crt_profile_default,
                            _mbedtls_x509_crt_profile_next,
                            _mbedtls_x509_crt_profile_suiteb,
                            _mbedtls_x509_crt_verify,
                            _mbedtls_x509_crt_verify_info,
                            _mbedtls_x509_crt_verify_restartable,
                            _mbedtls_x509_crt_verify_with_profile,
                            _mbedtls_x509_csr_free, _mbedtls_x509_csr_info,
                            _mbedtls_x509_csr_init, _mbedtls_x509_csr_parse,
                            _mbedtls_x509_csr_parse_der,
                            _mbedtls_x509_csr_parse_file, _mbedtls_x509_dn_gets,
                            _mbedtls_x509_get_alg, _mbedtls_x509_get_alg_null,
                            _mbedtls_x509_get_ext, _mbedtls_x509_get_name,
                            _mbedtls_x509_get_rsassa_pss_params,
                            _mbedtls_x509_get_serial, _mbedtls_x509_get_sig,
                            _mbedtls_x509_get_sig_alg, _mbedtls_x509_get_time,
                            _mbedtls_x509_key_size_helper,
                            _mbedtls_x509_parse_subject_alt_name,
                            _mbedtls_x509_self_test, _mbedtls_x509_serial_gets,
                            _mbedtls_x509_set_extension,
                            _mbedtls_x509_sig_alg_gets,
                            _mbedtls_x509_string_to_names,
                            _mbedtls_x509_time_is_future,
                            _mbedtls_x509_time_is_past,
                            _mbedtls_x509_write_extensions,
                            _mbedtls_x509_write_names, _mbedtls_x509_write_sig,
                            _mbedtls_x509write_csr_der,
                            _mbedtls_x509write_csr_free,
                            _mbedtls_x509write_csr_init,
                            _mbedtls_x509write_csr_pem,
                            _mbedtls_x509write_csr_set_extension,
                            _mbedtls_x509write_csr_set_key,
                            _mbedtls_x509write_csr_set_key_usage,
                            _mbedtls_x509write_csr_set_md_alg,
                            _mbedtls_x509write_csr_set_ns_cert_type,
                            _mbedtls_x509write_csr_set_subject_name,
                            _singletonAttributeData, _zclClusterNames ]
    objc-classes:         [ BleConnection, CHIPAccountLogin, CHIPApplicationBasic,
                            CHIPApplicationLauncher, CHIPAudioOutput,
                            CHIPBarrierControl, CHIPBasic, CHIPBinaryInputBasic,
                            CHIPBinding, CHIPBridgedDeviceBasic, CHIPCluster,
                            CHIPColorControl, CHIPContentLaunch, CHIPDescriptor,
                            CHIPDevice, CHIPDeviceController, CHIPDoorLock,
                            CHIPError, CHIPEthernetNetworkDiagnostics,
                            CHIPFixedLabel, CHIPGeneralCommissioning,
                            CHIPGeneralDiagnostics, CHIPGroupKeyManagement,
                            CHIPGroups, CHIPIdentify, CHIPKeypadInput,
                            CHIPLevelControl, CHIPLowPower,
                            CHIPManualSetupPayloadParser, CHIPMediaInput,
                            CHIPMediaPlayback, CHIPNetworkCommissioning, CHIPOnOff,
                            CHIPOnboardingPayloadParser,
                            CHIPOperationalCredentials, CHIPOptionalQRCodeInfo,
                            CHIPPumpConfigurationAndControl,
                            CHIPQRCodeSetupPayloadParser,
                            CHIPRelativeHumidityMeasurement, CHIPScenes,
                            CHIPSetupPayload, CHIPSoftwareDiagnostics, CHIPSwitch,
                            CHIPTargetNavigator, CHIPTemperatureMeasurement,
                            CHIPTestCluster, CHIPThermostat,
                            CHIPTrustedRootCertificates, CHIPTvChannel,
                            CHIPWakeOnLan, CHIPWindowCovering, UUIDHelper ]
    objc-ivars:           [ BleConnection._appState,
                            BleConnection._centralManager,
                            BleConnection._chipWorkQueue,
                            BleConnection._deviceDiscriminator,
                            BleConnection._mBleLayer,
                            BleConnection._onConnectionComplete,
                            BleConnection._onConnectionError,
                            BleConnection._peripheral,
                            BleConnection._shortServiceUUID,
                            BleConnection._timer, BleConnection._workQueue,
                            CHIPAccountLogin._cppCluster,
                            CHIPApplicationBasic._cppCluster,
                            CHIPApplicationLauncher._cppCluster,
                            CHIPAudioOutput._cppCluster,
                            CHIPBarrierControl._cppCluster,
                            CHIPBasic._cppCluster,
                            CHIPBinaryInputBasic._cppCluster,
                            CHIPBinding._cppCluster,
                            CHIPBridgedDeviceBasic._cppCluster,
                            CHIPCluster._callbackQueue,
                            CHIPCluster._chipWorkQueue,
                            CHIPColorControl._cppCluster,
                            CHIPContentLaunch._cppCluster,
                            CHIPDescriptor._cppCluster, CHIPDevice._cppDevice,
                            CHIPDevice._lock,
                            CHIPDeviceController._chipWorkQueue,
                            CHIPDeviceController._cppCommissioner,
                            CHIPDeviceController._listenPort,
                            CHIPDeviceController._localDeviceId,
                            CHIPDeviceController._lock,
                            CHIPDeviceController._operationalCredentialsDelegate,
                            CHIPDeviceController._pairingDelegateBridge,
                            CHIPDeviceController._persistentStorageDelegateBridge,
                            CHIPDoorLock._cppCluster,
                            CHIPEthernetNetworkDiagnostics._cppCluster,
                            CHIPFixedLabel._cppCluster,
                            CHIPGeneralCommissioning._cppCluster,
                            CHIPGeneralDiagnostics._cppCluster,
                            CHIPGroupKeyManagement._cppCluster,
                            CHIPGroups._cppCluster, CHIPIdentify._cppCluster,
                            CHIPKeypadInput._cppCluster,
                            CHIPLevelControl._cppCluster,
                            CHIPLowPower._cppCluster,
                            CHIPManualSetupPayloadParser._chipManualSetupPayloadParser,
                            CHIPManualSetupPayloadParser._decimalStringRepresentation,
                            CHIPMediaInput._cppCluster,
                            CHIPMediaPlayback._cppCluster,
                            CHIPNetworkCommissioning._cppCluster,
                            CHIPOnOff._cppCluster,
                            CHIPOperationalCredentials._cppCluster,
                            CHIPOptionalQRCodeInfo._infoType,
                            CHIPOptionalQRCodeInfo._integerValue,
                            CHIPOptionalQRCodeInfo._stringValue,
                            CHIPOptionalQRCodeInfo._tag,
                            CHIPPumpConfigurationAndControl._cppCluster,
                            CHIPQRCodeSetupPayloadParser._base38Representation,
                            CHIPQRCodeSetupPayloadParser._chipQRCodeSetupPayloadParser,
                            CHIPRelativeHumidityMeasurement._cppCluster,
                            CHIPScenes._cppCluster,
                            CHIPSetupPayload._chipSetupPayload,
                            CHIPSetupPayload._commissioningFlow,
                            CHIPSetupPayload._discriminator,
                            CHIPSetupPayload._productID,
                            CHIPSetupPayload._rendezvousInformation,
                            CHIPSetupPayload._serialNumber,
                            CHIPSetupPayload._setUpPINCode,
                            CHIPSetupPayload._vendorID,
                            CHIPSetupPayload._version,
                            CHIPSoftwareDiagnostics._cppCluster,
                            CHIPSwitch._cppCluster,
                            CHIPTargetNavigator._cppCluster,
                            CHIPTemperatureMeasurement._cppCluster,
                            CHIPTestCluster._cppCluster,
                            CHIPThermostat._cppCluster,
                            CHIPTrustedRootCertificates._cppCluster,
                            CHIPTvChannel._cppCluster, CHIPWakeOnLan._cppCluster,
                            CHIPWindowCovering._cppCluster ]
    weak-def-symbols:     [ __Z24emberAfStartMoveCallbackv,
                            __Z26emberAfMessageSentCallbackRKN4chip22MessageSendDestinationEP13EmberApsFrametPhh,
                            __Z29emberAfGetCurrentTimeCallbackv,
                            __Z29emberAfPreMessageSendCallbackP20EmberAfMessageStructPh,
                            __Z30emberAfGetEndpointInfoCallbackhPhP25EmberAfEndpointInfoStruct,
                            __Z31emberAfBasicClusterInitCallbackh,
                            __Z31emberAfOnOffClusterInitCallbackh,
                            __Z32emberAfGroupsClusterInitCallbackh,
                            __Z32emberAfRegistrationAbortCallbackv,
                            __Z32emberAfScenesClusterInitCallbackh,
                            __Z32emberAfSwitchClusterInitCallbackh,
                            __Z33emberAfBindingClusterInitCallbackh,
                            __Z33emberAfPreAttributeChangeCallbackhtththtPh,
                            __Z33emberAfPreCommandReceivedCallbackP21EmberAfClusterCommand,
                            __Z34emberAfAttributeReadAccessCallbackhttt,
                            __Z34emberAfDoorLockClusterInitCallbackh,
                            __Z34emberAfIdentifyClusterInitCallbackh,
                            __Z34emberAfInterpanSendMessageCallbackP21EmberAfInterpanHeadertPh,
                            __Z34emberAfLowPowerClusterInitCallbackh,
                            __Z34emberAfPostAttributeChangeCallbackhtththtPh,
                            __Z35emberAfAddToCurrentAppTasksCallbackj,
                            __Z35emberAfAttributeWriteAccessCallbackhttt,
                            __Z35emberAfTvChannelClusterInitCallbackh,
                            __Z35emberAfWakeOnLanClusterInitCallbackh,
                            __Z36emberAfDescriptorClusterInitCallbackh,
                            __Z36emberAfExternalAttributeReadCallbackhtP24EmberAfAttributeMetadatatPhti,
                            __Z36emberAfFixedLabelClusterInitCallbackh,
                            __Z36emberAfMediaInputClusterInitCallbackh,
                            __Z36emberAfThermostatClusterInitCallbackh,
                            __Z37emberAfAudioOutputClusterInitCallbackh,
                            __Z37emberAfExternalAttributeWriteCallbackhtP24EmberAfAttributeMetadatatPhi,
                            __Z37emberAfKeypadInputClusterInitCallbackh,
                            __Z37emberAfTestClusterClusterInitCallbackh,
                            __Z38emberAfAccountLoginClusterInitCallbackh,
                            __Z38emberAfColorControlClusterInitCallbackh,
                            __Z38emberAfLevelControlClusterInitCallbackh,
                            __Z39emberAfContentLaunchClusterInitCallbackh,
                            __Z39emberAfMediaPlaybackClusterInitCallbackh,
                            __Z40emberAfBarrierControlClusterInitCallbackh,
                            __Z40emberAfRemoveFromCurrentAppTasksCallbackj,
                            __Z40emberAfWindowCoveringClusterInitCallbackh,
                            __Z41emberAfAllowNetworkWriteAttributeCallbackhtthtPhh,
                            __Z41emberAfTargetNavigatorClusterInitCallbackh,
                            __Z42emberAfApplicationBasicClusterInitCallbackh,
                            __Z42emberAfBinaryInputBasicClusterInitCallbackh,
                            __Z44emberAfBridgedDeviceBasicClusterInitCallbackh,
                            __Z44emberAfGeneralDiagnosticsClusterInitCallbackh,
                            __Z44emberAfGroupKeyManagementClusterInitCallbackh,
                            __Z45emberAfApplicationLauncherClusterInitCallbackh,
                            __Z45emberAfSoftwareDiagnosticsClusterInitCallbackh,
                            __Z46emberAfGeneralCommissioningClusterInitCallbackh,
                            __Z46emberAfNetworkCommissioningClusterInitCallbackh,
                            __Z48emberAfOperationalCredentialsClusterInitCallbackh,
                            __Z48emberAfTemperatureMeasurementClusterInitCallbackh,
                            __Z49emberAfTrustedRootCertificatesClusterInitCallbackh,
                            __Z52emberAfEthernetNetworkDiagnosticsClusterInitCallbackh,
                            __Z53emberAfPumpConfigurationAndControlClusterInitCallbackh,
                            __Z53emberAfRelativeHumidityMeasurementClusterInitCallbackh,
                            __Z7isasciii, __Z7isdigiti, __Z7isgraphi, __Z7toloweri,
                            __Z8__istypeim, __Z8isxdigiti, __Z9__isctypeim,
                            __ZGVZN4chip3app22CHIPDeviceCallbacksMgr11GetInstanceEvE8instance,
                            __ZN2nl9ByteOrder10GetCurrentEv,
                            __ZN2nl9ByteOrder15Swap32BigToHostEj,
                            __ZN2nl9ByteOrder15Swap64HostToBigEy,
                            __ZN2nl9ByteOrder18Swap16HostToLittleEt,
                            __ZN2nl9ByteOrder18Swap16LittleToHostEt,
                            __ZN2nl9ByteOrder18Swap32HostToLittleEj,
                            __ZN2nl9ByteOrder18Swap32LittleToHostEj,
                            __ZN2nl9ByteOrder18Swap64HostToLittleEy,
                            __ZN2nl9ByteOrder18Swap64LittleToHostEy,
                            __ZN4chip10Controller6Device10GetPairingEv,
                            __ZN4chip10Controller6Device10SetAddressERKNS_4Inet9IPAddressE,
                            __ZN4chip10Controller6Device11SendMessageINS_9Protocols19ServiceProvisioning7MsgTypeEvEEiT_ONS_6System18PacketBufferHandleE,
                            __ZN4chip10Controller6Device11SendMessageINS_9Protocols7TempZCL7MsgTypeEvEEiT_ONS_6System18PacketBufferHandleE,
                            __ZN4chip10Controller6Device20ProvisioningCompleteEt,
                            __ZN4chip10Controller6Device4InitENS0_26ControllerDeviceInitParamsEtt,
                            __ZN4chip10Controller6Device4InitENS0_26ControllerDeviceInitParamsEtyRKNS_9Transport11PeerAddressEt,
                            __ZN4chip10Controller6Device9SetActiveEb,
                            __ZN4chip11CASESession14PeerConnectionEv,
                            __ZN4chip11CASESession15MessageDispatchEv,
                            __ZN4chip11Credentials12IsChipDNAttrEt,
                            __ZN4chip11Credentials16CertificateKeyId5ClearEv,
                            __ZN4chip11Credentials17IsChip32bitDNAttrEt,
                            __ZN4chip11Credentials17IsChip64bitDNAttrEt,
                            __ZN4chip11Credentials18ChipCertificateSetaSEOS1_,
                            __ZN4chip11Credentials24OperationalCredentialSet11LoadCertSetEPNS0_18ChipCertificateSetE,
                            __ZN4chip11Credentials7ChipRDN5ClearEv,
                            __ZN4chip11DeviceLayer11PlatformMgrEv,
                            __ZN4chip11DeviceLayer15ConnectivityMgrEv,
                            __ZN4chip11DeviceLayer15DeviceEventType10IsInternalEt,
                            __ZN4chip11DeviceLayer15PlatformManager13DispatchEventEPKNS0_15ChipDeviceEventE,
                            __ZN4chip11DeviceLayer15PlatformManager13InitChipStackEv,
                            __ZN4chip11DeviceLayer15PlatformManager18StartEventLoopTaskEv,
                            __ZN4chip11DeviceLayer15PlatformManager8ShutdownEv,
                            __ZN4chip11DeviceLayer15PlatformManager9PostEventEPKNS0_15ChipDeviceEventE,
                            __ZN4chip11DeviceLayer15PlatformMgrImplEv,
                            __ZN4chip11DeviceLayer16ConfigurationMgrEv,
                            __ZN4chip11DeviceLayer19ConnectivityManager11GetBleLayerEv,
                            __ZN4chip11DeviceLayer19ConnectivityManager15OnPlatformEventEPKNS0_15ChipDeviceEventE,
                            __ZN4chip11DeviceLayer19ConnectivityManager4InitEv,
                            __ZN4chip11DeviceLayer19PlatformManagerImpl12GetWorkQueueEv,
                            __ZN4chip11DeviceLayer19PlatformManagerImpl4ImplEv,
                            __ZN4chip11DeviceLayer20ConfigurationManager14GetCountryCodeEPcmRm,
                            __ZN4chip11DeviceLayer20ConfigurationManager21GetRegulatoryLocationERj,
                            __ZN4chip11DeviceLayer20ConfigurationManager4InitEv,
                            __ZN4chip11DeviceLayer8Internal10BLEManager11GetBleLayerEv,
                            __ZN4chip11DeviceLayer8Internal10BLEManager13GetDeviceNameEPcm,
                            __ZN4chip11DeviceLayer8Internal10BLEManager13IsAdvertisingEv,
                            __ZN4chip11DeviceLayer8Internal10BLEManager13SetDeviceNameEPKc,
                            __ZN4chip11DeviceLayer8Internal10BLEManager14NumConnectionsEv,
                            __ZN4chip11DeviceLayer8Internal10BLEManager15OnPlatformEventEPKNS0_15ChipDeviceEventE,
                            __ZN4chip11DeviceLayer8Internal10BLEManager18SetAdvertisingModeENS0_19ConnectivityManager18BLEAdvertisingModeE,
                            __ZN4chip11DeviceLayer8Internal10BLEManager20IsAdvertisingEnabledEv,
                            __ZN4chip11DeviceLayer8Internal10BLEManager21SetAdvertisingEnabledEb,
                            __ZN4chip11DeviceLayer8Internal10BLEManager22GetCHIPoBLEServiceModeEv,
                            __ZN4chip11DeviceLayer8Internal10BLEManager22SetCHIPoBLEServiceModeENS0_19ConnectivityManager19CHIPoBLEServiceModeE,
                            __ZN4chip11DeviceLayer8Internal10BLEManager4InitEv,
                            __ZN4chip11DeviceLayer8Internal26GenericPlatformManagerImplINS0_19PlatformManagerImplEE13_ScheduleWorkEPFvlEl,
                            __ZN4chip11DeviceLayer8Internal26GenericPlatformManagerImplINS0_19PlatformManagerImplEE14_DispatchEventEPKNS0_15ChipDeviceEventE,
                            __ZN4chip11DeviceLayer8Internal26GenericPlatformManagerImplINS0_19PlatformManagerImplEE14_InitChipStackEv,
                            __ZN4chip11DeviceLayer8Internal26GenericPlatformManagerImplINS0_19PlatformManagerImplEE16_AddEventHandlerEPFvPKNS0_15ChipDeviceEventElEl,
                            __ZN4chip11DeviceLayer8Internal26GenericPlatformManagerImplINS0_19PlatformManagerImplEE19_RemoveEventHandlerEPFvPKNS0_15ChipDeviceEventElEl,
                            __ZN4chip11DeviceLayer8Internal26GenericPlatformManagerImplINS0_19PlatformManagerImplEE26DispatchEventToApplicationEPKNS0_15ChipDeviceEventE,
                            __ZN4chip11DeviceLayer8Internal26GenericPlatformManagerImplINS0_19PlatformManagerImplEE26DispatchEventToDeviceLayerEPKNS0_15ChipDeviceEventE,
                            __ZN4chip11DeviceLayer8Internal26GenericPlatformManagerImplINS0_19PlatformManagerImplEE26DispatchEventToSystemLayerEPKNS0_15ChipDeviceEventE,
                            __ZN4chip11DeviceLayer8Internal26GenericPlatformManagerImplINS0_19PlatformManagerImplEE33HandleMessageLayerActivityChangedEb,
                            __ZN4chip11DeviceLayer8Internal26GenericPlatformManagerImplINS0_19PlatformManagerImplEE4ImplEv,
                            __ZN4chip11DeviceLayer8Internal26GenericPlatformManagerImplINS0_19PlatformManagerImplEE9_ShutdownEv,
                            __ZN4chip11DeviceLayer8Internal31GenericConfigurationManagerImplINS0_24ConfigurationManagerImplEE12_GetDeviceIdERy,
                            __ZN4chip11DeviceLayer8Internal31GenericConfigurationManagerImplINS0_24ConfigurationManagerImplEE12_GetFabricIdERy,
                            __ZN4chip11DeviceLayer8Internal31GenericConfigurationManagerImplINS0_24ConfigurationManagerImplEE12_GetVendorIdERt,
                            __ZN4chip11DeviceLayer8Internal31GenericConfigurationManagerImplINS0_24ConfigurationManagerImplEE13_GetProductIdERt,
                            __ZN4chip11DeviceLayer8Internal31GenericConfigurationManagerImplINS0_24ConfigurationManagerImplEE13_GetServiceIdERy,
                            __ZN4chip11DeviceLayer8Internal31GenericConfigurationManagerImplINS0_24ConfigurationManagerImplEE13_RunUnitTestsEv,
                            __ZN4chip11DeviceLayer8Internal31GenericConfigurationManagerImplINS0_24ConfigurationManagerImplEE14_GetBreadcrumbERy,
                            __ZN4chip11DeviceLayer8Internal31GenericConfigurationManagerImplINS0_24ConfigurationManagerImplEE14_GetDeviceNameEPcm,
                            __ZN4chip11DeviceLayer8Internal31GenericConfigurationManagerImplINS0_24ConfigurationManagerImplEE14_GetDeviceTypeERt,
                            __ZN4chip11DeviceLayer8Internal31GenericConfigurationManagerImplINS0_24ConfigurationManagerImplEE14_GetVendorNameEPcm,
                            __ZN4chip11DeviceLayer8Internal31GenericConfigurationManagerImplINS0_24ConfigurationManagerImplEE14_GetWiFiAPSSIDEPcm,
                            __ZN4chip11DeviceLayer8Internal31GenericConfigurationManagerImplINS0_24ConfigurationManagerImplEE14_StoreFabricIdEy,
                            __ZN4chip11DeviceLayer8Internal31GenericConfigurationManagerImplINS0_24ConfigurationManagerImplEE15_GetCountryCodeEPcmRm,
                            __ZN4chip11DeviceLayer8Internal31GenericConfigurationManagerImplINS0_24ConfigurationManagerImplEE15_GetProductNameEPcm,
                            __ZN4chip11DeviceLayer8Internal31GenericConfigurationManagerImplINS0_24ConfigurationManagerImplEE16_GetQRCodeStringEPcm,
                            __ZN4chip11DeviceLayer8Internal31GenericConfigurationManagerImplINS0_24ConfigurationManagerImplEE16_GetSerialNumberEPcmRm,
                            __ZN4chip11DeviceLayer8Internal31GenericConfigurationManagerImplINS0_24ConfigurationManagerImplEE16_GetSetupPinCodeERj,
                            __ZN4chip11DeviceLayer8Internal31GenericConfigurationManagerImplINS0_24ConfigurationManagerImplEE16_LogDeviceConfigEv,
                            __ZN4chip11DeviceLayer8Internal31GenericConfigurationManagerImplINS0_24ConfigurationManagerImplEE16_StoreBreadcrumbEy,
                            __ZN4chip11DeviceLayer8Internal31GenericConfigurationManagerImplINS0_24ConfigurationManagerImplEE17_GetFailSafeArmedERb,
                            __ZN4chip11DeviceLayer8Internal31GenericConfigurationManagerImplINS0_24ConfigurationManagerImplEE17_GetServiceConfigEPhmRm,
                            __ZN4chip11DeviceLayer8Internal31GenericConfigurationManagerImplINS0_24ConfigurationManagerImplEE17_IsMemberOfFabricEv,
                            __ZN4chip11DeviceLayer8Internal31GenericConfigurationManagerImplINS0_24ConfigurationManagerImplEE17_SetFailSafeArmedEb,
                            __ZN4chip11DeviceLayer8Internal31GenericConfigurationManagerImplINS0_24ConfigurationManagerImplEE17_StoreCountryCodeEPKcm,
                            __ZN4chip11DeviceLayer8Internal31GenericConfigurationManagerImplINS0_24ConfigurationManagerImplEE18_IsPairedToAccountEv,
                            __ZN4chip11DeviceLayer8Internal31GenericConfigurationManagerImplINS0_24ConfigurationManagerImplEE18_StoreSerialNumberEPKcm,
                            __ZN4chip11DeviceLayer8Internal31GenericConfigurationManagerImplINS0_24ConfigurationManagerImplEE18_StoreSetupPinCodeEj,
                            __ZN4chip11DeviceLayer8Internal31GenericConfigurationManagerImplINS0_24ConfigurationManagerImplEE19_ConfigureChipStackEv,
                            __ZN4chip11DeviceLayer8Internal31GenericConfigurationManagerImplINS0_24ConfigurationManagerImplEE19_GetLifetimeCounterERt,
                            __ZN4chip11DeviceLayer8Internal31GenericConfigurationManagerImplINS0_24ConfigurationManagerImplEE19_GetPairedAccountIdEPcmRm,
                            __ZN4chip11DeviceLayer8Internal31GenericConfigurationManagerImplINS0_24ConfigurationManagerImplEE19_GetProductRevisionERt,
                            __ZN4chip11DeviceLayer8Internal31GenericConfigurationManagerImplINS0_24ConfigurationManagerImplEE19_IsFullyProvisionedEv,
                            __ZN4chip11DeviceLayer8Internal31GenericConfigurationManagerImplINS0_24ConfigurationManagerImplEE19_StoreServiceConfigEPKhm,
                            __ZN4chip11DeviceLayer8Internal31GenericConfigurationManagerImplINS0_24ConfigurationManagerImplEE20_GetDevicePrivateKeyEPhmRm,
                            __ZN4chip11DeviceLayer8Internal31GenericConfigurationManagerImplINS0_24ConfigurationManagerImplEE20_GetFirmwareRevisionERj,
                            __ZN4chip11DeviceLayer8Internal31GenericConfigurationManagerImplINS0_24ConfigurationManagerImplEE21_GetDeviceCertificateEPhmRm,
                            __ZN4chip11DeviceLayer8Internal31GenericConfigurationManagerImplINS0_24ConfigurationManagerImplEE21_GetFirmwareBuildTimeERtRhS6_S6_S6_S6_,
                            __ZN4chip11DeviceLayer8Internal31GenericConfigurationManagerImplINS0_24ConfigurationManagerImplEE21_GetManufacturingDateERtRhS6_,
                            __ZN4chip11DeviceLayer8Internal31GenericConfigurationManagerImplINS0_24ConfigurationManagerImplEE21_IsServiceProvisionedEv,
                            __ZN4chip11DeviceLayer8Internal31GenericConfigurationManagerImplINS0_24ConfigurationManagerImplEE21_StorePairedAccountIdEPKcm,
                            __ZN4chip11DeviceLayer8Internal31GenericConfigurationManagerImplINS0_24ConfigurationManagerImplEE21_StoreProductRevisionEt,
                            __ZN4chip11DeviceLayer8Internal31GenericConfigurationManagerImplINS0_24ConfigurationManagerImplEE22_GetInitialPairingHintERt,
                            __ZN4chip11DeviceLayer8Internal31GenericConfigurationManagerImplINS0_24ConfigurationManagerImplEE22_GetRegulatoryLocationERj,
                            __ZN4chip11DeviceLayer8Internal31GenericConfigurationManagerImplINS0_24ConfigurationManagerImplEE22_GetSetupDiscriminatorERt,
                            __ZN4chip11DeviceLayer8Internal31GenericConfigurationManagerImplINS0_24ConfigurationManagerImplEE23_StoreManufacturingDateEPKcm,
                            __ZN4chip11DeviceLayer8Internal31GenericConfigurationManagerImplINS0_24ConfigurationManagerImplEE24_ComputeProvisioningHashEPhm,
                            __ZN4chip11DeviceLayer8Internal31GenericConfigurationManagerImplINS0_24ConfigurationManagerImplEE24_GetManufacturerDeviceIdERy,
                            __ZN4chip11DeviceLayer8Internal31GenericConfigurationManagerImplINS0_24ConfigurationManagerImplEE24_GetSecondaryPairingHintERt,
                            __ZN4chip11DeviceLayer8Internal31GenericConfigurationManagerImplINS0_24ConfigurationManagerImplEE24_StoreRegulatoryLocationEj,
                            __ZN4chip11DeviceLayer8Internal31GenericConfigurationManagerImplINS0_24ConfigurationManagerImplEE24_StoreSetupDiscriminatorEt,
                            __ZN4chip11DeviceLayer8Internal31GenericConfigurationManagerImplINS0_24ConfigurationManagerImplEE25_GetPrimaryWiFiMACAddressEPh,
                            __ZN4chip11DeviceLayer8Internal31GenericConfigurationManagerImplINS0_24ConfigurationManagerImplEE25_GetProductRevisionStringEPcm,
                            __ZN4chip11DeviceLayer8Internal31GenericConfigurationManagerImplINS0_24ConfigurationManagerImplEE25_IncrementLifetimeCounterEv,
                            __ZN4chip11DeviceLayer8Internal31GenericConfigurationManagerImplINS0_24ConfigurationManagerImplEE26_GetFirmwareRevisionStringEPcm,
                            __ZN4chip11DeviceLayer8Internal31GenericConfigurationManagerImplINS0_24ConfigurationManagerImplEE26_StoreManufacturerDeviceIdEy,
                            __ZN4chip11DeviceLayer8Internal31GenericConfigurationManagerImplINS0_24ConfigurationManagerImplEE27_GetPrimary802154MACAddressEPh,
                            __ZN4chip11DeviceLayer8Internal31GenericConfigurationManagerImplINS0_24ConfigurationManagerImplEE27_StorePrimaryWiFiMACAddressEPKh,
                            __ZN4chip11DeviceLayer8Internal31GenericConfigurationManagerImplINS0_24ConfigurationManagerImplEE29_ClearServiceProvisioningDataEv,
                            __ZN4chip11DeviceLayer8Internal31GenericConfigurationManagerImplINS0_24ConfigurationManagerImplEE29_GetDeviceIntermediateCACertsEPhmRm,
                            __ZN4chip11DeviceLayer8Internal31GenericConfigurationManagerImplINS0_24ConfigurationManagerImplEE29_GetInitialPairingInstructionEPcm,
                            __ZN4chip11DeviceLayer8Internal31GenericConfigurationManagerImplINS0_24ConfigurationManagerImplEE29_StorePrimary802154MACAddressEPKh,
                            __ZN4chip11DeviceLayer8Internal31GenericConfigurationManagerImplINS0_24ConfigurationManagerImplEE29_StoreServiceProvisioningDataEyPKhmPKcm,
                            __ZN4chip11DeviceLayer8Internal31GenericConfigurationManagerImplINS0_24ConfigurationManagerImplEE31_GetBLEDeviceIdentificationInfoERNS_3Ble31ChipBLEDeviceIdentificationInfoE,
                            __ZN4chip11DeviceLayer8Internal31GenericConfigurationManagerImplINS0_24ConfigurationManagerImplEE31_GetSecondaryPairingInstructionEPcm,
                            __ZN4chip11DeviceLayer8Internal31GenericConfigurationManagerImplINS0_24ConfigurationManagerImplEE32_GetManufacturerDevicePrivateKeyEPhmRm,
                            __ZN4chip11DeviceLayer8Internal31GenericConfigurationManagerImplINS0_24ConfigurationManagerImplEE33_GetManufacturerDeviceCertificateEPhmRm,
                            __ZN4chip11DeviceLayer8Internal31GenericConfigurationManagerImplINS0_24ConfigurationManagerImplEE34_IsCommissionableDeviceNameEnabledEv,
                            __ZN4chip11DeviceLayer8Internal31GenericConfigurationManagerImplINS0_24ConfigurationManagerImplEE34_IsCommissionableDeviceTypeEnabledEv,
                            __ZN4chip11DeviceLayer8Internal31GenericConfigurationManagerImplINS0_24ConfigurationManagerImplEE34_StoreManufacturerDevicePrivateKeyEPKhm,
                            __ZN4chip11DeviceLayer8Internal31GenericConfigurationManagerImplINS0_24ConfigurationManagerImplEE35_StoreManufacturerDeviceCertificateEPKhm,
                            __ZN4chip11DeviceLayer8Internal31GenericConfigurationManagerImplINS0_24ConfigurationManagerImplEE41_GetManufacturerDeviceIntermediateCACertsEPhmRm,
                            __ZN4chip11DeviceLayer8Internal31GenericConfigurationManagerImplINS0_24ConfigurationManagerImplEE43_StoreManufacturerDeviceIntermediateCACertsEPKhm,
                            __ZN4chip11DeviceLayer8Internal31GenericConfigurationManagerImplINS0_24ConfigurationManagerImplEE4ImplEv,
                            __ZN4chip11DeviceLayer8Internal31GenericConfigurationManagerImplINS0_24ConfigurationManagerImplEE5_InitEv,
                            __ZN4chip11DeviceLayer8Internal34GenericConnectivityManagerImpl_BLEINS0_23ConnectivityManagerImplEE12_GetBleLayerEv,
                            __ZN4chip11DeviceLayer8Internal34GenericConnectivityManagerImpl_BLEINS0_23ConnectivityManagerImplEE17_GetBLEDeviceNameEPcm,
                            __ZN4chip11DeviceLayer8Internal34GenericConnectivityManagerImpl_BLEINS0_23ConnectivityManagerImplEE17_IsBLEAdvertisingEv,
                            __ZN4chip11DeviceLayer8Internal34GenericConnectivityManagerImpl_BLEINS0_23ConnectivityManagerImplEE17_SetBLEDeviceNameEPKc,
                            __ZN4chip11DeviceLayer8Internal34GenericConnectivityManagerImpl_BLEINS0_23ConnectivityManagerImplEE18_NumBLEConnectionsEv,
                            __ZN4chip11DeviceLayer8Internal34GenericConnectivityManagerImpl_BLEINS0_23ConnectivityManagerImplEE22_SetBLEAdvertisingModeENS0_19ConnectivityManager18BLEAdvertisingModeE,
                            __ZN4chip11DeviceLayer8Internal34GenericConnectivityManagerImpl_BLEINS0_23ConnectivityManagerImplEE23_GetCHIPoBLEServiceModeEv,
                            __ZN4chip11DeviceLayer8Internal34GenericConnectivityManagerImpl_BLEINS0_23ConnectivityManagerImplEE23_SetCHIPoBLEServiceModeENS0_19ConnectivityManager19CHIPoBLEServiceModeE,
                            __ZN4chip11DeviceLayer8Internal34GenericConnectivityManagerImpl_BLEINS0_23ConnectivityManagerImplEE24_IsBLEAdvertisingEnabledEv,
                            __ZN4chip11DeviceLayer8Internal34GenericConnectivityManagerImpl_BLEINS0_23ConnectivityManagerImplEE25_SetBLEAdvertisingEnabledEb,
                            __ZN4chip11DeviceLayer8Internal34GenericConnectivityManagerImpl_BLEINS0_23ConnectivityManagerImplEE4ImplEv,
                            __ZN4chip11DeviceLayer8Internal6BLEMgrEv,
                            __ZN4chip11PASESession14PeerConnectionEv,
                            __ZN4chip11PASESession15MessageDispatchEv,
                            __ZN4chip12CastToSignedIhEENSt3__19enable_ifIXsr3std11is_unsignedIT_EE5valueENS1_11make_signedIS3_E4typeEE4typeES3_,
                            __ZN4chip12CastToSignedIjEENSt3__19enable_ifIXsr3std11is_unsignedIT_EE5valueENS1_11make_signedIS3_E4typeEE4typeES3_,
                            __ZN4chip12CastToSignedItEENSt3__19enable_ifIXsr3std11is_unsignedIT_EE5valueENS1_11make_signedIS3_E4typeEE4typeES3_,
                            __ZN4chip12CastToSignedIyEENSt3__19enable_ifIXsr3std11is_unsignedIT_EE5valueENS1_11make_signedIS3_E4typeEE4typeES3_,
                            __ZN4chip12PacketHeader12SetMessageIdEj,
                            __ZN4chip12PacketHeader15SetSourceNodeIdEy,
                            __ZN4chip12PacketHeader17SetEncryptionTypeENS_6Header14EncryptionTypeE,
                            __ZN4chip12PacketHeader18SetEncryptionKeyIDEt,
                            __ZN4chip12PacketHeader20SetDestinationNodeIdEy,
                            __ZN4chip12PacketHeader26SetSecureSessionControlMsgEb,
                            __ZN4chip12PacketHeader8GetFlagsEv,
                            __ZN4chip12TransportMgrIJNS_9Transport3UDPES2_NS1_3BLEILm1EEEEE14ResetTransportIJRNS1_19UdpListenParametersES8_NS1_19BleListenParametersEEEEiDpOT_,
                            __ZN4chip12TransportMgrIJNS_9Transport3UDPES2_NS1_3BLEILm1EEEEE4InitIJRNS1_19UdpListenParametersES8_NS1_19BleListenParametersEEEEiDpOT_,
                            __ZN4chip13DeleteDeletorINS_9Messaging23ExchangeMessageDispatchEE7ReleaseEPS2_,
                            __ZN4chip13PayloadHeader11SetNeedsAckEb,
                            __ZN4chip13PayloadHeader11SetProtocolENS_9Protocols2IdE,
                            __ZN4chip13PayloadHeader12SetInitiatorEb,
                            __ZN4chip13PayloadHeader13SetExchangeIDEt,
                            __ZN4chip13PayloadHeader14SetMessageTypeENS_9Protocols2IdEh,
                            __ZN4chip13PayloadHeader8SetAckIdEj,
                            __ZN4chip14MessageCounteraSERKS0_,
                            __ZN4chip15DataModelReader11ReadGroupIdEPt,
                            __ZN4chip15DataModelReader13ReadClusterIdEPt,
                            __ZN4chip15DataModelReader14ReadEndpointIdEPh,
                            __ZN4chip15DataModelReader6Read16EPt,
                            __ZN4chip15DataModelReader9ReadOctetEPh,
                            __ZN4chip15SafePointerCastIP19mbedtls_ecp_keypairNS_6Crypto18P256KeypairContextEEENSt3__19enable_ifIXsr3std10is_pointerIT_EE5valueES7_E4typeEPT0_,
                            __ZN4chip15SafePointerCastIP22mbedtls_sha256_contextNS_6Crypto23HashSHA256OpaqueContextEEENSt3__19enable_ifIXsr3std10is_pointerIT_EE5valueES7_E4typeEPT0_,
                            __ZN4chip15SafePointerCastIPK19mbedtls_ecp_keypairKNS_6Crypto18P256KeypairContextEEENSt3__19enable_ifIXsr3std10is_pointerIT_EE5valueES9_E4typeEPT0_,
                            __ZN4chip15SafePointerCastIPNS_6Crypto15Spake2p_ContextENS1_20Spake2pOpaqueContextEEENSt3__19enable_ifIXsr3std10is_pointerIT_EE5valueES7_E4typeEPT0_,
                            __ZN4chip16BitMapObjectPoolINS_9Messaging15ExchangeContextELm8EE12CreateObjectIJPNS1_15ExchangeManagerEtRNS_19SecureSessionHandleEbDnEEEPS2_DpOT_,
                            __ZN4chip16BitMapObjectPoolINS_9Messaging15ExchangeContextELm8EE12CreateObjectIJPNS1_15ExchangeManagerEtRNS_19SecureSessionHandleEbRPNS1_16ExchangeDelegateEEEEPS2_DpOT_,
                            __ZN4chip16BitMapObjectPoolINS_9Messaging15ExchangeContextELm8EE13ReleaseObjectEPS2_,
                            __ZN4chip16ReferenceCountedINS_9Messaging15ExchangeContextENS1_22ExchangeContextDeletorELi1EE6RetainEv,
                            __ZN4chip16ReferenceCountedINS_9Messaging15ExchangeContextENS1_22ExchangeContextDeletorELi1EE7ReleaseEv,
                            __ZN4chip16ReferenceCountedINS_9Messaging23ExchangeMessageDispatchENS_13DeleteDeletorIS2_EELi1EE6RetainEv,
                            __ZN4chip16ReferenceCountedINS_9Messaging23ExchangeMessageDispatchENS_13DeleteDeletorIS2_EELi1EE7ReleaseEv,
                            __ZN4chip16SecureSessionMgr11SetDelegateEPNS_24SecureSessionMgrDelegateE,
                            __ZN4chip16SecureSessionMgr11SystemLayerEv,
                            __ZN4chip16SecureSessionMgr16IsControlMessageERNS_13PayloadHeaderE,
                            __ZN4chip16SecureSessionMgr23GetSendCounterForPacketERNS_13PayloadHeaderERNS_9Transport19PeerConnectionStateE,
                            __ZN4chip16TransportMgrBase19SetSecureSessionMgrEPNS_20TransportMgrDelegateE,
                            __ZN4chip18OptionalQRCodeInfoaSERKS0_,
                            __ZN4chip19MessagePacketBuffer3NewEm,
                            __ZN4chip20RendezvousParameters14SetPeerAddressERKNS_9Transport11PeerAddressE,
                            __ZN4chip20RendezvousParameters24SetAdvertisementDelegateEPNS_31RendezvousAdvertisementDelegateE,
                            __ZN4chip21StaticAllocatorBitmap2AtEm,
                            __ZN4chip21StaticAllocatorBitmap7IndexOfEPv,
                            __ZN4chip22SerializableU64SetBase14SerializedSizeEv,
                            __ZN4chip22SerializableU64SetBase17MaxSerializedSizeEv,
                            __ZN4chip22SerializableU64SetBase8ContainsEy,
                            __ZN4chip25MessageAuthenticationCode6SetTagEPNS_12PacketHeaderENS_6Header14EncryptionTypeEPhm,
                            __ZN4chip26LocalSessionMessageCounteraSERKS0_,
                            __ZN4chip27EncryptedPacketBufferHandle13MarkEncryptedEONS_6System18PacketBufferHandleE,
                            __ZN4chip27EncryptedPacketBufferHandleaSEOS0_,
                            __ZN4chip27OptionalQRCodeInfoExtensionaSERKS0_,
                            __ZN4chip28SecurePairingUsingTestSecret14ToSerializableERNS_23PASESessionSerializableE,
                            __ZN4chip30MonotonicallyIncreasingCounteraSERKS0_,
                            __ZN4chip36SessionEstablishmentExchangeDispatch14SetPeerAddressERKNS_9Transport11PeerAddressE,
                            __ZN4chip36SessionEstablishmentExchangeDispatch4InitEPNS_16TransportMgrBaseE,
                            __ZN4chip3Ble11BLEEndPoint11QueueTxLockEv,
                            __ZN4chip3Ble11BLEEndPoint13QueueTxUnlockEv,
                            __ZN4chip3Ble11BLEEndPoint18ConnectionObjectIsEPv,
                            __ZN4chip3Ble15BleEndPointPool4FindEPv,
                            __ZN4chip3Ble31ChipBLEDeviceIdentificationInfo11SetVendorIdEt,
                            __ZN4chip3Ble31ChipBLEDeviceIdentificationInfo12SetProductIdEt,
                            __ZN4chip3Ble31ChipBLEDeviceIdentificationInfo22SetDeviceDiscriminatorEt,
                            __ZN4chip3Ble31ChipBLEDeviceIdentificationInfo4InitEv,
                            __ZN4chip3Ble9BtpEngine13ClearRxPacketEv,
                            __ZN4chip3Ble9BtpEngine13ClearTxPacketEv,
                            __ZN4chip3Ble9BtpEngine14BorrowTxPacketEv,
                            __ZN4chip3Ble9BtpEngine17GetRxFragmentSizeEv,
                            __ZN4chip3Ble9BtpEngine17GetTxFragmentSizeEv,
                            __ZN4chip3Ble9BtpEngine17SetRxFragmentSizeEt,
                            __ZN4chip3Ble9BtpEngine17SetTxFragmentSizeEt,
                            __ZN4chip3Ble9BtpEngine34GetNewestUnackedSentSequenceNumberEv,
                            __ZN4chip3Ble9BtpEngine7RxStateEv,
                            __ZN4chip3Ble9BtpEngine7TxStateEv,
                            __ZN4chip3TLV10ContextTagEh,
                            __ZN4chip3TLV10ProfileTagEjj,
                            __ZN4chip3TLV10ProfileTagEttj,
                            __ZN4chip3TLV12IsContextTagEy,
                            __ZN4chip3TLV12IsProfileTagEy,
                            __ZN4chip3TLV12IsSpecialTagEy,
                            __ZN4chip3TLV13TagNumFromTagEy,
                            __ZN4chip3TLV14IsValidTLVTypeENS0_14TLVElementTypeE,
                            __ZN4chip3TLV15GetTLVFieldSizeENS0_14TLVElementTypeE,
                            __ZN4chip3TLV15TLVBackingStoreaSERKS1_,
                            __ZN4chip3TLV15TLVTypeHasValueENS0_14TLVElementTypeE,
                            __ZN4chip3TLV15TLVTypeIsStringENS0_14TLVElementTypeE,
                            __ZN4chip3TLV16ProfileIdFromTagEy,
                            __ZN4chip3TLV16TLVTypeHasLengthENS0_14TLVElementTypeE,
                            __ZN4chip3TLV17CircularTLVReader4InitERNS0_21CHIPCircularTLVBufferE,
                            __ZN4chip3TLV17CircularTLVWriter4InitERNS0_21CHIPCircularTLVBufferE,
                            __ZN4chip3TLV18TLVTypeIsContainerENS0_14TLVElementTypeE,
                            __ZN4chip3TLV18TLVTypeIsContainerENS0_7TLVTypeE,
                            __ZN4chip3TLV19TLVFieldSizeToBytesENS0_12TLVFieldSizeE,
                            __ZN4chip3TLV21CHIPCircularTLVBufferaSERKS1_,
                            __ZN4chip3TLV9CommonTagEj,
                            __ZN4chip3TLV9TLVReader16SetContainerOpenEb,
                            __ZN4chip3TLV9TLVWriter16SetContainerOpenEb,
                            __ZN4chip3TLV9TLVWriter25SetCloseContainerReservedEb,
                            __ZN4chip3TLVorENS0_13TLVTagControlENS0_14TLVElementTypeE,
                            __ZN4chip3app11ClusterInfo10ClearDirtyEv,
                            __ZN4chip3app11ClusterInfo7IsDirtyEv,
                            __ZN4chip3app11ClusterInfo8SetDirtyEv,
                            __ZN4chip3app11CommandList7Builder28GetCommandDataElementBuilderEv,
                            __ZN4chip3app11ReadHandler18GetCurrentPriorityEv,
                            __ZN4chip3app11ReadHandler23GetEventClusterInfolistEv,
                            __ZN4chip3app11ReadHandler24GetVendedEventNumberListEv,
                            __ZN4chip3app11ReadHandler27GetAttributeClusterInfolistEv,
                            __ZN4chip3app15EventManagement10AlwaysFailERNS_3TLV21CHIPCircularTLVBufferEPvRNS2_9TLVReaderE,
                            __ZN4chip3app15EventManagement7IsValidEv,
                            __ZN4chip3app19CircularEventBuffer11InitCounterEPNS_30MonotonicallyIncreasingCounterE,
                            __ZN4chip3app19CircularEventBuffer16GetPriorityLevelEv,
                            __ZN4chip3app19CircularEventBuffer18GetLastEventNumberEv,
                            __ZN4chip3app19CircularEventBuffer19GetFirstEventNumberEv,
                            __ZN4chip3app19CircularEventBuffer26GetNextCircularEventBufferEv,
                            __ZN4chip3app19CircularEventBuffer26GetRequiredSpaceforEvictedEv,
                            __ZN4chip3app19CircularEventBuffer26SetRequiredSpaceforEvictedEm,
                            __ZN4chip3app19CircularEventBuffer27GetLastEventSystemTimestampEv,
                            __ZN4chip3app19CircularEventBuffer28GetFirstEventSystemTimestampEv,
                            __ZN4chip3app19CircularEventBuffer28SetFirstEventSystemTimestampEy,
                            __ZN4chip3app19CircularEventBuffer30GetPreviousCircularEventBufferEv,
                            __ZN4chip3app19CircularEventBufferaSERKS1_,
                            __ZN4chip3app21ReadSingleClusterDataERNS0_11ClusterInfoERNS_3TLV9TLVWriterE,
                            __ZN4chip3app22CHIPDeviceCallbacksMgr11GetInstanceEv,
                            __ZN4chip3app22InteractionModelEngine18GetReportingEngineEv,
                            __ZN4chip3app22WriteSingleClusterDataERNS0_11ClusterInfoERNS_3TLV9TLVReaderE,
                            __ZN4chip3app7Builder10CheckpointERNS_3TLV9TLVWriterE,
                            __ZN4chip3app7Builder8RollbackERKNS_3TLV9TLVWriterE,
                            __ZN4chip3app7Builder9GetWriterEv,
                            __ZN4chip3app9Timestamp3UTCEy,
                            __ZN4chip3app9Timestamp6SystemEy,
                            __ZN4chip3minIhEERKT_S3_S3_,
                            __ZN4chip3minImEERKT_S3_S3_,
                            __ZN4chip3minItEERKT_S3_S3_,
                            __ZN4chip4ASN110GetOIDEnumEt,
                            __ZN4chip4ASN16GetOIDENS0_11OIDCategoryEh,
                            __ZN4chip4Inet11TCPEndPoint10MarkActiveEv,
                            __ZN4chip4Inet12SocketEvents10ClearWriteEv,
                            __ZN4chip4Inet12SocketEvents5ClearEv,
                            __ZN4chip4Inet12SocketEvents7SetReadEv,
                            __ZN4chip4Inet12SocketEvents8SetErrorEv,
                            __ZN4chip4Inet12SocketEvents8SetWriteEv,
                            __ZN4chip4Inet12SocketEvents9ClearReadEv,
                            __ZN4chip4Inet14InetLayerBasis18InitInetLayerBasisERNS0_9InetLayerEPv,
                            __ZN4chip4Inet24InterfaceAddressIterator12GetInterfaceEv,
                            __ZN4chip4Inet24InterfaceAddressIterator19GetIPv6PrefixLengthEv,
                            __ZN4chip4Mdns11MdnsServiceaSEOS1_,
                            __ZN4chip4Mdns12MdnsContexts11GetInstanceEv,
                            __ZN4chip4Mdns12MdnsContexts11SetHostnameEPKc,
                            __ZN4chip4Mdns15RegisterContext7matchesEPKc,
                            __ZN4chip4Mdns22CommissionableNodeData5ResetEv,
                            __ZN4chip4Mdns22CommissionableNodeDataaSERKS1_,
                            __ZN4chip4Mdns31CommissionAdvertisingParametersaSERKS1_,
                            __ZN4chip4Time10TimeSourceILNS0_6SourceE0EE25GetCurrentMonotonicTimeMsEv,
                            __ZN4chip5Uint813to_const_charEPKh,
                            __ZN4chip5Uint814to_const_ucharEPKh,
                            __ZN4chip5Uint815from_const_charEPKc,
                            __ZN4chip5Uint87to_charEPh,
                            __ZN4chip5Uint88to_ucharEPh,
                            __ZN4chip6Crypto19CapacityBoundBufferILm32EE9SetLengthEm,
                            __ZN4chip6Crypto19CapacityBoundBufferILm32EEcvPhEv,
                            __ZN4chip6Crypto19CapacityBoundBufferILm72EE9SetLengthEm,
                            __ZN4chip6Crypto19CapacityBoundBufferILm72EEcvPhEv,
                            __ZN4chip6Crypto19CapacityBoundBufferILm97EE9SetLengthEm,
                            __ZN4chip6Crypto19CapacityBoundBufferILm97EEcvPhEv,
                            __ZN4chip6PeerId11SetFabricIdEy,
                            __ZN4chip6PeerId9SetNodeIdEy,
                            __ZN4chip6System10ObjectPoolINS0_5TimerELj16EE13GetStatisticsERaS4_,
                            __ZN4chip6System10ObjectPoolINS0_5TimerELj16EE18GetNumObjectsInUseEjRj,
                            __ZN4chip6System10ObjectPoolINS0_5TimerELj16EE19UpdateHighWatermarkERKj,
                            __ZN4chip6System10ObjectPoolINS0_5TimerELj16EE3GetERKNS0_5LayerEm,
                            __ZN4chip6System10ObjectPoolINS0_5TimerELj16EE4SizeEv,
                            __ZN4chip6System10ObjectPoolINS0_5TimerELj16EE9TryCreateERNS0_5LayerE,
                            __ZN4chip6System10ObjectPoolINS_4Inet11DNSResolverELj4EE13GetStatisticsERaS5_,
                            __ZN4chip6System10ObjectPoolINS_4Inet11DNSResolverELj4EE18GetNumObjectsInUseEjRj,
                            __ZN4chip6System10ObjectPoolINS_4Inet11DNSResolverELj4EE19UpdateHighWatermarkERKj,
                            __ZN4chip6System10ObjectPoolINS_4Inet11DNSResolverELj4EE3GetERKNS0_5LayerEm,
                            __ZN4chip6System10ObjectPoolINS_4Inet11DNSResolverELj4EE4SizeEv,
                            __ZN4chip6System10ObjectPoolINS_4Inet11DNSResolverELj4EE9TryCreateERNS0_5LayerE,
                            __ZN4chip6System10ObjectPoolINS_4Inet11RawEndPointELj8EE13GetStatisticsERaS5_,
                            __ZN4chip6System10ObjectPoolINS_4Inet11RawEndPointELj8EE18GetNumObjectsInUseEjRj,
                            __ZN4chip6System10ObjectPoolINS_4Inet11RawEndPointELj8EE19UpdateHighWatermarkERKj,
                            __ZN4chip6System10ObjectPoolINS_4Inet11RawEndPointELj8EE3GetERKNS0_5LayerEm,
                            __ZN4chip6System10ObjectPoolINS_4Inet11RawEndPointELj8EE4SizeEv,
                            __ZN4chip6System10ObjectPoolINS_4Inet11RawEndPointELj8EE9TryCreateERNS0_5LayerE,
                            __ZN4chip6System10ObjectPoolINS_4Inet11TCPEndPointELj32EE13GetStatisticsERaS5_,
                            __ZN4chip6System10ObjectPoolINS_4Inet11TCPEndPointELj32EE18GetNumObjectsInUseEjRj,
                            __ZN4chip6System10ObjectPoolINS_4Inet11TCPEndPointELj32EE19UpdateHighWatermarkERKj,
                            __ZN4chip6System10ObjectPoolINS_4Inet11TCPEndPointELj32EE3GetERKNS0_5LayerEm,
                            __ZN4chip6System10ObjectPoolINS_4Inet11TCPEndPointELj32EE4SizeEv,
                            __ZN4chip6System10ObjectPoolINS_4Inet11TCPEndPointELj32EE9TryCreateERNS0_5LayerE,
                            __ZN4chip6System10ObjectPoolINS_4Inet11UDPEndPointELj32EE13GetStatisticsERaS5_,
                            __ZN4chip6System10ObjectPoolINS_4Inet11UDPEndPointELj32EE18GetNumObjectsInUseEjRj,
                            __ZN4chip6System10ObjectPoolINS_4Inet11UDPEndPointELj32EE19UpdateHighWatermarkERKj,
                            __ZN4chip6System10ObjectPoolINS_4Inet11UDPEndPointELj32EE3GetERKNS0_5LayerEm,
                            __ZN4chip6System10ObjectPoolINS_4Inet11UDPEndPointELj32EE4SizeEv,
                            __ZN4chip6System10ObjectPoolINS_4Inet11UDPEndPointELj32EE9TryCreateERNS0_5LayerE,
                            __ZN4chip6System12PacketBuffer13SetDataLengthEt,
                            __ZN4chip6System12PacketBuffer13SetDataLengthEtRKNS0_18PacketBufferHandleE,
                            __ZN4chip6System12PacketBuffer4LastEv,
                            __ZN4chip6System12PacketBuffer5CheckEPKS1_,
                            __ZN4chip6System18PacketBufferHandle4HoldEPNS0_12PacketBufferE,
                            __ZN4chip6System18PacketBufferHandle7AdvanceEv,
                            __ZN4chip6System18PacketBufferHandle8FreeHeadEv,
                            __ZN4chip6System18PacketBufferHandle9RightSizeEv,
                            __ZN4chip6System18PacketBufferHandleaSEDn,
                            __ZN4chip6System18PacketBufferHandleaSEOS1_,
                            __ZN4chip6System21PacketBufferTLVReader4InitEONS0_18PacketBufferHandleEb,
                            __ZN4chip6System21PacketBufferTLVWriter4InitEONS0_18PacketBufferHandleEb,
                            __ZN4chip6System21PacketBufferTLVWriter5ResetEv,
                            __ZN4chip6System21PacketBufferTLVWriter8FinalizeEPNS0_18PacketBufferHandleE,
                            __ZN4chip6System21PacketBufferTLVWriter8FinalizeEv,
                            __ZN4chip6System27TLVPacketBufferBackingStore4InitEONS0_18PacketBufferHandleEb,
                            __ZN4chip6System27TLVPacketBufferBackingStore7ReleaseEv,
                            __ZN4chip6System5Layer16GetDispatchQueueEv,
                            __ZN4chip6System5Layer16SetDispatchQueueEP16dispatch_queue_s,
                            __ZN4chip6System5Timer13GetStatisticsERaS2_,
                            __ZN4chip6System6Object6RetainEv,
                            __ZN4chip7CounteraSERKS0_,
                            __ZN4chip8BitFlagsINS_11Credentials13KeyUsageFlagsEtE2OrERKS3_,
                            __ZN4chip8BitFlagsINS_11Credentials13KeyUsageFlagsEtE2OrES2_,
                            __ZN4chip8BitFlagsINS_11Credentials13KeyUsageFlagsEtE2OrIJS2_EEEtS2_DpOT_,
                            __ZN4chip8BitFlagsINS_11Credentials13KeyUsageFlagsEtE2OrIJS2_S2_EEEtS2_DpOT_,
                            __ZN4chip8BitFlagsINS_11Credentials13KeyUsageFlagsEtE2OrIJS2_S2_S2_EEEtS2_DpOT_,
                            __ZN4chip8BitFlagsINS_11Credentials13KeyUsageFlagsEtE2OrIJS2_S2_S2_S2_EEEtS2_DpOT_,
                            __ZN4chip8BitFlagsINS_11Credentials13KeyUsageFlagsEtE2OrIJS2_S2_S2_S2_S2_EEEtS2_DpOT_,
                            __ZN4chip8BitFlagsINS_11Credentials13KeyUsageFlagsEtE2OrIJS2_S2_S2_S2_S2_S2_EEEtS2_DpOT_,
                            __ZN4chip8BitFlagsINS_11Credentials13KeyUsageFlagsEtE2OrIJS2_S2_S2_S2_S2_S2_S2_EEEtS2_DpOT_,
                            __ZN4chip8BitFlagsINS_11Credentials13KeyUsageFlagsEtE2OrIJS2_S2_S2_S2_S2_S2_S2_S2_EEEtS2_DpOT_,
                            __ZN4chip8BitFlagsINS_11Credentials13KeyUsageFlagsEtE3SetES2_,
                            __ZN4chip8BitFlagsINS_11Credentials13KeyUsageFlagsEtE8ClearAllEv,
                            __ZN4chip8BitFlagsINS_11Credentials15CertDecodeFlagsEhE3SetES2_,
                            __ZN4chip8BitFlagsINS_11Credentials15KeyPurposeFlagsEhE2OrERKS3_,
                            __ZN4chip8BitFlagsINS_11Credentials15KeyPurposeFlagsEhE3SetES2_,
                            __ZN4chip8BitFlagsINS_11Credentials15KeyPurposeFlagsEhE8ClearAllEv,
                            __ZN4chip8BitFlagsINS_11Credentials17CertValidateFlagsEhE8ClearAllEv,
                            __ZN4chip8BitFlagsINS_11Credentials9CertFlagsEtE2OrES2_,
                            __ZN4chip8BitFlagsINS_11Credentials9CertFlagsEtE2OrIJS2_EEEtS2_DpOT_,
                            __ZN4chip8BitFlagsINS_11Credentials9CertFlagsEtE3SetES2_,
                            __ZN4chip8BitFlagsINS_11Credentials9CertFlagsEtE8ClearAllEv,
                            __ZN4chip8BitFlagsINS_11DeviceLayer8Internal31GenericConfigurationManagerImplINS1_24ConfigurationManagerImplEE5FlagsEhE3SetES6_,
                            __ZN4chip8BitFlagsINS_11DeviceLayer8Internal31GenericConfigurationManagerImplINS1_24ConfigurationManagerImplEE5FlagsEhE3SetES6_b,
                            __ZN4chip8BitFlagsINS_11DeviceLayer8Internal31GenericConfigurationManagerImplINS1_24ConfigurationManagerImplEE5FlagsEhE5ClearES6_,
                            __ZN4chip8BitFlagsINS_11DeviceLayer8Internal31GenericConfigurationManagerImplINS1_24ConfigurationManagerImplEE5FlagsEhE8ClearAllEv,
                            __ZN4chip8BitFlagsINS_25RendezvousInformationFlagEhE2OrERKS2_,
                            __ZN4chip8BitFlagsINS_25RendezvousInformationFlagEhE2OrES1_,
                            __ZN4chip8BitFlagsINS_25RendezvousInformationFlagEhE2OrIJS1_EEEhS1_DpOT_,
                            __ZN4chip8BitFlagsINS_25RendezvousInformationFlagEhE2OrIJS1_S1_EEEhS1_DpOT_,
                            __ZN4chip8BitFlagsINS_3Ble11BLEEndPoint14TimerStateFlagEhE3SetES3_,
                            __ZN4chip8BitFlagsINS_3Ble11BLEEndPoint14TimerStateFlagEhE5ClearES3_,
                            __ZN4chip8BitFlagsINS_3Ble11BLEEndPoint14TimerStateFlagEhE8ClearAllEv,
                            __ZN4chip8BitFlagsINS_3Ble11BLEEndPoint19ConnectionStateFlagEhE3SetES3_,
                            __ZN4chip8BitFlagsINS_3Ble11BLEEndPoint19ConnectionStateFlagEhE3SetES3_b,
                            __ZN4chip8BitFlagsINS_3Ble11BLEEndPoint19ConnectionStateFlagEhE5ClearES3_,
                            __ZN4chip8BitFlagsINS_3Ble11BLEEndPoint19ConnectionStateFlagEhE8ClearAllEv,
                            __ZN4chip8BitFlagsINS_3Ble9BtpEngine11HeaderFlagsEhE10RawStorageEv,
                            __ZN4chip8BitFlagsINS_3Ble9BtpEngine11HeaderFlagsEhE2OrES3_,
                            __ZN4chip8BitFlagsINS_3Ble9BtpEngine11HeaderFlagsEhE2OrIJS3_EEEhS3_DpOT_,
                            __ZN4chip8BitFlagsINS_3Ble9BtpEngine11HeaderFlagsEhE2OrIJS3_S3_EEEhS3_DpOT_,
                            __ZN4chip8BitFlagsINS_3Ble9BtpEngine11HeaderFlagsEhE3SetES3_,
                            __ZN4chip8BitFlagsINS_3app11ClusterInfo5FlagsEhE3SetES3_,
                            __ZN4chip8BitFlagsINS_3app11ClusterInfo5FlagsEhE8ClearAllEv,
                            __ZN4chip8BitFlagsINS_3app16CommandPathFlagsEhE2OrES2_,
                            __ZN4chip8BitFlagsINS_6Header10FlagValuesEtE3SetES2_,
                            __ZN4chip8BitFlagsINS_6Header10FlagValuesEtE3SetES2_b,
                            __ZN4chip8BitFlagsINS_6Header10FlagValuesEtE5ClearES2_,
                            __ZN4chip8BitFlagsINS_6Header10FlagValuesEtE6SetRawEt,
                            __ZN4chip8BitFlagsINS_6Header12ExFlagValuesEhE3SetES2_,
                            __ZN4chip8BitFlagsINS_6Header12ExFlagValuesEhE3SetES2_b,
                            __ZN4chip8BitFlagsINS_6Header12ExFlagValuesEhE5ClearES2_,
                            __ZN4chip8BitFlagsINS_6Header12ExFlagValuesEhE6SetRawEh,
                            __ZN4chip8BitFlagsINS_9Messaging16SendMessageFlagsEtE3SetES2_,
                            __ZN4chip8BitFlagsINS_9Messaging17MessageFlagValuesEjE3SetES2_,
                            __ZN4chip8BitFlagsINS_9Messaging22ReliableMessageContext5FlagsEtE3SetES3_,
                            __ZN4chip8BitFlagsINS_9Messaging22ReliableMessageContext5FlagsEtE3SetES3_b,
                            __ZN4chip8BitFlagsINS_9Messaging22ReliableMessageContext5FlagsEtE5ClearES3_,
                            __ZN4chip8Callback10Cancelable6CancelEv,
                            __ZN4chip8Callback13CallbackDeque12InsertBeforeEPNS0_10CancelableES3_PFvS3_E,
                            __ZN4chip8Callback13CallbackDeque13_InsertBeforeEPNS0_10CancelableES3_,
                            __ZN4chip8Callback13CallbackDeque5FirstEv,
                            __ZN4chip8Callback13CallbackDeque7DequeueEPNS0_10CancelableE,
                            __ZN4chip8Callback13CallbackDeque7EnqueueEPNS0_10CancelableE,
                            __ZN4chip8Callback13CallbackDeque7EnqueueEPNS0_10CancelableEPFvS3_E,
                            __ZN4chip8Callback13CallbackDeque8InsertByEPNS0_10CancelableEPFiPvPKS2_S6_ES4_,
                            __ZN4chip8Callback13CallbackDeque8InsertByEPNS0_10CancelableEPFiPvPKS2_S6_ES4_PFvS3_E,
                            __ZN4chip8Callback13CallbackDeque8_DequeueEPNS0_10CancelableE,
                            __ZN4chip8Callback13CallbackDeque9DequeueByEPFbyPKNS0_10CancelableEEyRS2_,
                            __ZN4chip8Callback8CallbackIPFvPvEE14FromCancelableEPNS0_10CancelableE,
                            __ZN4chip8Callback8CallbackIPFvPvEE6CancelEv,
                            __ZN4chip8Callback8CallbackIPFvPvNS_4SpanIhEES4_S4_S4_S4_S4_EE6CancelEv,
                            __ZN4chip8Callback8CallbackIPFvPvhEE6CancelEv,
                            __ZN4chip8Callback8CallbackIPFvPvhyPhEE6CancelEv,
                            __ZN4chip8Callback8CallbackIPFvPvtEE6CancelEv,
                            __ZN4chip8Encoding12LittleEndian10HostSwap16Et,
                            __ZN4chip8Encoding12LittleEndian10HostSwap32Ej,
                            __ZN4chip8Encoding12LittleEndian10HostSwap64Ey,
                            __ZN4chip8Encoding12LittleEndian5Put16EPht,
                            __ZN4chip8Encoding12LittleEndian5Put32EPhj,
                            __ZN4chip8Encoding12LittleEndian5Put64EPhy,
                            __ZN4chip8Encoding12LittleEndian6Read16ERPKh,
                            __ZN4chip8Encoding12LittleEndian6Read16ERPh,
                            __ZN4chip8Encoding12LittleEndian6Read32ERPKh,
                            __ZN4chip8Encoding12LittleEndian6Read64ERPKh,
                            __ZN4chip8Encoding12LittleEndian6Reader5Read8EPh,
                            __ZN4chip8Encoding12LittleEndian6Reader6Read16EPt,
                            __ZN4chip8Encoding12LittleEndian6Reader6Read32EPj,
                            __ZN4chip8Encoding12LittleEndian6Reader6Read64EPy,
                            __ZN4chip8Encoding12LittleEndian6Reader7RawReadIhEEvPT_,
                            __ZN4chip8Encoding12LittleEndian6Reader7RawReadIjEEvPT_,
                            __ZN4chip8Encoding12LittleEndian6Reader7RawReadItEEvPT_,
                            __ZN4chip8Encoding12LittleEndian6Reader7RawReadIyEEvPT_,
                            __ZN4chip8Encoding12LittleEndian7Write16ERPht,
                            __ZN4chip8Encoding12LittleEndian7Write32ERPhj,
                            __ZN4chip8Encoding12LittleEndian7Write64ERPhy,
                            __ZN4chip8Encoding22EndianBufferWriterBaseINS0_12LittleEndian12BufferWriterEE3PutEPKvm,
                            __ZN4chip8Encoding22EndianBufferWriterBaseINS0_12LittleEndian12BufferWriterEE3PutEh,
                            __ZN4chip8Encoding22EndianBufferWriterBaseINS0_12LittleEndian12BufferWriterEE4Put8Eh,
                            __ZN4chip8Encoding22EndianBufferWriterBaseINS0_12LittleEndian12BufferWriterEE5Put16Et,
                            __ZN4chip8Encoding22EndianBufferWriterBaseINS0_12LittleEndian12BufferWriterEE5Put32Ej,
                            __ZN4chip8Encoding22EndianBufferWriterBaseINS0_12LittleEndian12BufferWriterEE5Put64Ey,
                            __ZN4chip8Encoding22EndianBufferWriterBaseINS0_9BigEndian12BufferWriterEE3PutEh,
                            __ZN4chip8Encoding22PacketBufferWriterBaseINS0_12BufferWriterEE8FinalizeEv,
                            __ZN4chip8Encoding22PacketBufferWriterBaseINS0_12LittleEndian12BufferWriterEE8FinalizeEv,
                            __ZN4chip8Encoding5Read8ERPKh,
                            __ZN4chip8Encoding6Write8ERPhh,
                            __ZN4chip8Encoding9BigEndian10HostSwap32Ej,
                            __ZN4chip8Encoding9BigEndian5Put64EPhy,
                            __ZN4chip8OptionalINS_4Inet9IPAddressEE10ClearValueEv,
                            __ZN4chip8OptionalINS_4Inet9IPAddressEE8SetValueERKS2_,
                            __ZN4chip8OptionalINS_4Inet9IPAddressEEaSERKS3_,
                            __ZN4chip8OptionalINS_9Transport11PeerAddressEE5ValueERKS2_,
                            __ZN4chip8OptionalIPKcE10ClearValueEv,
                            __ZN4chip8OptionalIPKcE8SetValueERKS2_,
                            __ZN4chip8OptionalIPKcEaSERKS3_,
                            __ZN4chip8OptionalIjE10ClearValueEv,
                            __ZN4chip8OptionalIjE8SetValueERKj,
                            __ZN4chip8OptionalItE10ClearValueEv,
                            __ZN4chip8OptionalItE8SetValueERKt,
                            __ZN4chip8OptionalItEaSERKS1_,
                            __ZN4chip8OptionalIyE10ClearValueEv,
                            __ZN4chip8OptionalIyE5ValueERKy,
                            __ZN4chip8OptionalIyE8SetValueERKy,
                            __ZN4chip8Platform18ScopedMemoryBufferIcNS0_4Impl24PlatformMemoryManagementEE3GetEv,
                            __ZN4chip8Platform18ScopedMemoryBufferIcNS0_4Impl24PlatformMemoryManagementEE5AllocEm,
                            __ZN4chip8Platform18ScopedMemoryBufferIhNS0_4Impl24PlatformMemoryManagementEE3GetEv,
                            __ZN4chip8Platform18ScopedMemoryBufferIhNS0_4Impl24PlatformMemoryManagementEE5AllocEm,
                            __ZN4chip8Platform18ScopedMemoryBufferIhNS0_4Impl24PlatformMemoryManagementEEixEm,
                            __ZN4chip8Platform23MemoryDebugCheckPointerEPKvm,
                            __ZN4chip8Platform3NewINS_10Controller40DeviceControllerInteractionModelDelegateEJEEEPT_DpOT0_,
                            __ZN4chip8Platform3NewINS_12TransportMgrIJNS_9Transport3UDPES4_NS3_3BLEILm1EEEEEEJEEEPT_DpOT0_,
                            __ZN4chip8Platform3NewINS_14secure_channel21MessageCounterManagerEJEEEPT_DpOT0_,
                            __ZN4chip8Platform3NewINS_16SecureSessionMgrEJEEEPT_DpOT0_,
                            __ZN4chip8Platform3NewINS_28SecurePairingUsingTestSecretEJEEEPT_DpOT0_,
                            __ZN4chip8Platform3NewINS_4Mdns13BrowseContextEJRPvRPFvS4_PNS2_11MdnsServiceEmiERNS2_19MdnsServiceProtocolEEEEPT_DpOT0_,
                            __ZN4chip8Platform3NewINS_4Mdns14ResolveContextEJRPvRPFvS4_PNS2_11MdnsServiceEiERPKcRNS_4Inet13IPAddressTypeEEEEPT_DpOT0_,
                            __ZN4chip8Platform3NewINS_4Mdns15RegisterContextEJRPKcDnEEEPT_DpOT0_,
                            __ZN4chip8Platform3NewINS_4Mdns18GetAddrInfoContextEJRPvRPFvS4_PNS2_11MdnsServiceEiERPKcRjRtEEEPT_DpOT0_,
                            __ZN4chip8Platform3NewINS_6Crypto11P256KeypairEJEEEPT_DpOT0_,
                            __ZN4chip8Platform3NewINS_9Messaging15ExchangeManagerEJEEEPT_DpOT0_,
                            __ZN4chip8Platform3NewINS_9Transport16AdminPairingInfo24StorableAdminPairingInfoEJEEEPT_DpOT0_,
                            __ZN4chip8Platform4Impl22ScopedMemoryBufferBaseINS1_24PlatformMemoryManagementEE3PtrEv,
                            __ZN4chip8Platform4Impl22ScopedMemoryBufferBaseINS1_24PlatformMemoryManagementEE4FreeEv,
                            __ZN4chip8Platform4Impl22ScopedMemoryBufferBaseINS1_24PlatformMemoryManagementEE5AllocEm,
                            __ZN4chip8Platform4Impl24PlatformMemoryManagement10MemoryFreeEPv,
                            __ZN4chip8Platform4Impl24PlatformMemoryManagement11MemoryAllocEm,
                            __ZN4chip8Platform6DeleteINS_10Controller40DeviceControllerInteractionModelDelegateEEEvPT_,
                            __ZN4chip8Platform6DeleteINS_12TransportMgrIJNS_9Transport3UDPES4_NS3_3BLEILm1EEEEEEEEvPT_,
                            __ZN4chip8Platform6DeleteINS_14secure_channel21MessageCounterManagerEEEvPT_,
                            __ZN4chip8Platform6DeleteINS_16SecureSessionMgrEEEvPT_,
                            __ZN4chip8Platform6DeleteINS_28SecurePairingUsingTestSecretEEEvPT_,
                            __ZN4chip8Platform6DeleteINS_4Mdns14GenericContextEEEvPT_,
                            __ZN4chip8Platform6DeleteINS_6Crypto11P256KeypairEEEvPT_,
                            __ZN4chip8Platform6DeleteINS_9Messaging11ExchangeACLEEEvPT_,
                            __ZN4chip8Platform6DeleteINS_9Messaging15ExchangeManagerEEEvPT_,
                            __ZN4chip8Platform6DeleteINS_9Messaging23ExchangeMessageDispatchEEEvPT_,
                            __ZN4chip8Platform6DeleteINS_9Transport16AdminPairingInfo24StorableAdminPairingInfoEEEvPT_,
                            __ZN4chip9CanCastToIhiEEbT0_,
                            __ZN4chip9CanCastToIhmEEbT0_,
                            __ZN4chip9CanCastToIjjEEbT0_,
                            __ZN4chip9CanCastToIjlEEbT0_,
                            __ZN4chip9CanCastToIjmEEbT0_,
                            __ZN4chip9CanCastToIjxEEbT0_,
                            __ZN4chip9CanCastToIjyEEbT0_,
                            __ZN4chip9CanCastToIthEEbT0_,
                            __ZN4chip9CanCastToItiEEbT0_,
                            __ZN4chip9CanCastToItjEEbT0_,
                            __ZN4chip9CanCastToItlEEbT0_,
                            __ZN4chip9CanCastToItmEEbT0_,
                            __ZN4chip9CanCastToIttEEbT0_,
                            __ZN4chip9CanCastToIyyEEbT0_,
                            __ZN4chip9Messaging15ExchangeContext11SendMessageINS_9Protocols13SecureChannel7MsgTypeEvEEiT_ONS_6System18PacketBufferHandleERKNS_8BitFlagsINS0_16SendMessageFlagsEtEE,
                            __ZN4chip9Messaging15ExchangeContext11SendMessageINS_9Protocols16InteractionModel7MsgTypeEvEEiT_ONS_6System18PacketBufferHandleERKNS_8BitFlagsINS0_16SendMessageFlagsEtEE,
                            __ZN4chip9Messaging15ExchangeContext11SetDelegateEPNS0_16ExchangeDelegateE,
                            __ZN4chip9Messaging15ExchangeContext16GetSecureSessionEv,
                            __ZN4chip9Messaging15ExchangeContext18GetMessageDispatchEv,
                            __ZN4chip9Messaging15ExchangeContext25GetReliableMessageContextEv,
                            __ZN4chip9Messaging15ExchangeManager11SetDelegateEPNS0_19ExchangeMgrDelegateE,
                            __ZN4chip9Messaging15ExchangeManager14ReleaseContextEPNS0_15ExchangeContextE,
                            __ZN4chip9Messaging15ExchangeManager21GetReliableMessageMgrEv,
                            __ZN4chip9Messaging15ExchangeManager25UnsolicitedMessageHandler5ResetEv,
                            __ZN4chip9Messaging15ExchangeManager40RegisterUnsolicitedMessageHandlerForTypeINS_9Protocols13SecureChannel7MsgTypeEvEEiT_PNS0_16ExchangeDelegateE,
                            __ZN4chip9Messaging15ExchangeManager42UnregisterUnsolicitedMessageHandlerForTypeINS_9Protocols13SecureChannel7MsgTypeEvEEiT_,
                            __ZN4chip9Messaging18ReliableMessageMgr17RetransTableEntryaSEOS2_,
                            __ZN4chip9Messaging22ReliableMessageContext19GetPendingPeerAckIdEv,
                            __ZN4chip9Messaging23ExchangeMessageDispatch4InitEv,
                            __ZN4chip9Messaging27ApplicationExchangeDispatch4InitEPNS_16SecureSessionMgrE,
                            __ZN4chip9Protocols17MessageTypeTraitsINS0_13SecureChannel7MsgTypeEE10ProtocolIdEv,
                            __ZN4chip9Protocols17MessageTypeTraitsINS0_16InteractionModel7MsgTypeEE10ProtocolIdEv,
                            __ZN4chip9Protocols17MessageTypeTraitsINS0_19ServiceProvisioning7MsgTypeEE10ProtocolIdEv,
                            __ZN4chip9Protocols17MessageTypeTraitsINS0_7TempZCL7MsgTypeEE10ProtocolIdEv,
                            __ZN4chip9Transport11PeerAddress12SetIPAddressERKNS_4Inet9IPAddressE,
                            __ZN4chip9Transport11PeerAddress12SetInterfaceEj,
                            __ZN4chip9Transport11PeerAddress13UninitializedEv,
                            __ZN4chip9Transport11PeerAddress3BLEEv,
                            __ZN4chip9Transport11PeerAddress3UDPERKNS_4Inet9IPAddressE,
                            __ZN4chip9Transport11PeerAddress3UDPERKNS_4Inet9IPAddressEtj,
                            __ZN4chip9Transport11PeerAddress7SetPortEt,
                            __ZN4chip9Transport11PeerAddressaSEOS1_,
                            __ZN4chip9Transport11PeerAddressaSERKS1_,
                            __ZN4chip9Transport15PeerConnectionsILm16ELNS_4Time6SourceE0EE20MarkConnectionActiveEPNS0_19PeerConnectionStateE,
                            __ZN4chip9Transport15PeerConnectionsILm16ELNS_4Time6SourceE0EE23FindPeerConnectionStateENS_8OptionalIyEEtPNS0_19PeerConnectionStateE,
                            __ZN4chip9Transport15PeerConnectionsILm16ELNS_4Time6SourceE0EE23FindPeerConnectionStateEtPNS0_19PeerConnectionStateE,
                            __ZN4chip9Transport15PeerConnectionsILm16ELNS_4Time6SourceE0EE23FindPeerConnectionStateEyPNS0_19PeerConnectionStateE,
                            __ZN4chip9Transport15PeerConnectionsILm16ELNS_4Time6SourceE0EE28CreateNewPeerConnectionStateERKNS_8OptionalIyEEttPPNS0_19PeerConnectionStateE,
                            __ZN4chip9Transport16AdminPairingInfo10SetAdminIdEt,
                            __ZN4chip9Transport16AdminPairingInfo11SetFabricIdEy,
                            __ZN4chip9Transport16AdminPairingInfo14GetTrustedRootERt,
                            __ZN4chip9Transport16AdminPairingInfo17GetOperationalKeyEv,
                            __ZN4chip9Transport16AdminPairingInfo5ResetEv,
                            __ZN4chip9Transport16AdminPairingInfo7KeySizeEv,
                            __ZN4chip9Transport16AdminPairingInfo9SetNodeIdEy,
                            __ZN4chip9Transport18PeerMessageCounter10GetCounterEv,
                            __ZN4chip9Transport18PeerMessageCounter10SetCounterEj,
                            __ZN4chip9Transport18PeerMessageCounter10SyncFailedEv,
                            __ZN4chip9Transport18PeerMessageCounter12SyncStartingENS_9FixedSpanIhLm8EEE,
                            __ZN4chip9Transport18PeerMessageCounter14IsSynchronizedEv,
                            __ZN4chip9Transport18PeerMessageCounter15IsSynchronizingEv,
                            __ZN4chip9Transport18PeerMessageCounter15VerifyChallengeEjNS_9FixedSpanIhLm8EEE,
                            __ZN4chip9Transport18PeerMessageCounter5ResetEv,
                            __ZN4chip9Transport18PeerMessageCounter6CommitEj,
                            __ZN4chip9Transport19PeerConnectionState10SetAdminIdEt,
                            __ZN4chip9Transport19PeerConnectionState12GetTransportEv,
                            __ZN4chip9Transport19PeerConnectionState12SetPeerKeyIDEt,
                            __ZN4chip9Transport19PeerConnectionState12SetTransportEPNS0_4BaseE,
                            __ZN4chip9Transport19PeerConnectionState13IsInitializedEv,
                            __ZN4chip9Transport19PeerConnectionState13SetLocalKeyIDEt,
                            __ZN4chip9Transport19PeerConnectionState13SetPeerNodeIdEy,
                            __ZN4chip9Transport19PeerConnectionState14GetPeerAddressEv,
                            __ZN4chip9Transport19PeerConnectionState14SetPeerAddressERKNS0_11PeerAddressE,
                            __ZN4chip9Transport19PeerConnectionState16GetSecureSessionEv,
                            __ZN4chip9Transport19PeerConnectionState21SetLastActivityTimeMsEy,
                            __ZN4chip9Transport19PeerConnectionState24GetSessionMessageCounterEv,
                            __ZN4chip9Transport19PeerConnectionState5ResetEv,
                            __ZN4chip9Transport19PeerConnectionStateaSEOS1_,
                            __ZN4chip9Transport19UdpListenParameters12GetInetLayerEv,
                            __ZN4chip9Transport19UdpListenParameters13SetListenPortEt,
                            __ZN4chip9Transport19UdpListenParameters14SetAddressTypeENS_4Inet13IPAddressTypeE,
                            __ZN4chip9Transport21SessionMessageCounter21GetPeerMessageCounterEv,
                            __ZN4chip9Transport21SessionMessageCounter22GetLocalMessageCounterEv,
                            __ZN4chip9Transport21SessionMessageCounter5ResetEv,
                            __ZN4chip9Transport21SessionMessageCounteraSEOS1_,
                            __ZN4chip9Transport4Base11SetDelegateEPNS0_20RawTransportDelegateE,
                            __ZN4chip9Transport4Base21HandleMessageReceivedERKNS0_11PeerAddressEONS_6System18PacketBufferHandleE,
                            __ZN4chip9Transport5TupleIJNS0_3UDPES2_NS0_3BLEILm1EEEEE14DisconnectImplILm0ELPv0EEEvRKNS0_11PeerAddressE,
                            __ZN4chip9Transport5TupleIJNS0_3UDPES2_NS0_3BLEILm1EEEEE14DisconnectImplILm1ELPv0EEEvRKNS0_11PeerAddressE,
                            __ZN4chip9Transport5TupleIJNS0_3UDPES2_NS0_3BLEILm1EEEEE14DisconnectImplILm2ELPv0EEEvRKNS0_11PeerAddressE,
                            __ZN4chip9Transport5TupleIJNS0_3UDPES2_NS0_3BLEILm1EEEEE14DisconnectImplILm3ELPv0EEEvRKNS0_11PeerAddressE,
                            __ZN4chip9Transport5TupleIJNS0_3UDPES2_NS0_3BLEILm1EEEEE15SendMessageImplILm0ELPv0EEEiRKNS0_11PeerAddressEONS_6System18PacketBufferHandleE,
                            __ZN4chip9Transport5TupleIJNS0_3UDPES2_NS0_3BLEILm1EEEEE15SendMessageImplILm1ELPv0EEEiRKNS0_11PeerAddressEONS_6System18PacketBufferHandleE,
                            __ZN4chip9Transport5TupleIJNS0_3UDPES2_NS0_3BLEILm1EEEEE15SendMessageImplILm2ELPv0EEEiRKNS0_11PeerAddressEONS_6System18PacketBufferHandleE,
                            __ZN4chip9Transport5TupleIJNS0_3UDPES2_NS0_3BLEILm1EEEEE15SendMessageImplILm3ELPv0EEEiRKNS0_11PeerAddressENS_6System18PacketBufferHandleE,
                            __ZN4chip9Transport5TupleIJNS0_3UDPES2_NS0_3BLEILm1EEEEE17CanSendToPeerImplILm0ELPv0EEEbRKNS0_11PeerAddressE,
                            __ZN4chip9Transport5TupleIJNS0_3UDPES2_NS0_3BLEILm1EEEEE17CanSendToPeerImplILm1ELPv0EEEbRKNS0_11PeerAddressE,
                            __ZN4chip9Transport5TupleIJNS0_3UDPES2_NS0_3BLEILm1EEEEE17CanSendToPeerImplILm2ELPv0EEEbRKNS0_11PeerAddressE,
                            __ZN4chip9Transport5TupleIJNS0_3UDPES2_NS0_3BLEILm1EEEEE17CanSendToPeerImplILm3ELPv0EEEbRKNS0_11PeerAddressE,
                            __ZN4chip9Transport5TupleIJNS0_3UDPES2_NS0_3BLEILm1EEEEE4InitIJRNS0_19UdpListenParametersES8_NS0_19BleListenParametersEELPv0EEEiPNS0_20RawTransportDelegateEDpOT_,
                            __ZN4chip9Transport5TupleIJNS0_3UDPES2_NS0_3BLEILm1EEEEE8InitImplEPNS0_20RawTransportDelegateE,
                            __ZN4chip9Transport5TupleIJNS0_3UDPES2_NS0_3BLEILm1EEEEE8InitImplINS0_19BleListenParametersEJEEEiPNS0_20RawTransportDelegateEOT_DpOT0_,
                            __ZN4chip9Transport5TupleIJNS0_3UDPES2_NS0_3BLEILm1EEEEE8InitImplIRNS0_19UdpListenParametersEJNS0_19BleListenParametersEEEEiPNS0_20RawTransportDelegateEOT_DpOT0_,
                            __ZN4chip9Transport5TupleIJNS0_3UDPES2_NS0_3BLEILm1EEEEE8InitImplIRNS0_19UdpListenParametersEJS8_NS0_19BleListenParametersEEEEiPNS0_20RawTransportDelegateEOT_DpOT0_,
                            __ZN4chip9Transport5TupleIJNS0_3UDPES2_NS0_3BLEILm1EEEEE9CloseImplILm0ELPv0EEEvv,
                            __ZN4chip9Transport5TupleIJNS0_3UDPES2_NS0_3BLEILm1EEEEE9CloseImplILm1ELPv0EEEvv,
                            __ZN4chip9Transport5TupleIJNS0_3UDPES2_NS0_3BLEILm1EEEEE9CloseImplILm2ELPv0EEEvv,
                            __ZN4chip9Transport5TupleIJNS0_3UDPES2_NS0_3BLEILm1EEEEE9CloseImplILm3ELPv0EEEvv,
                            __ZNK4chip10Controller6Device11GetDeviceIdEv,
                            __ZNK4chip10Controller6Device14MatchesSessionENS_19SecureSessionHandleE,
                            __ZNK4chip10Controller6Device17IsSecureConnectedEv,
                            __ZNK4chip10Controller6Device8IsActiveEv,
                            __ZNK4chip11Credentials16CertificateKeyId7IsEmptyEv,
                            __ZNK4chip11Credentials18ChipCertificateSet10GetCertSetEv,
                            __ZNK4chip11Credentials18ChipCertificateSet11GetLastCertEv,
                            __ZNK4chip11Credentials18ChipCertificateSet12GetCertCountEv,
                            __ZNK4chip11Credentials24OperationalCredentialSet12GetCertCountEv,
                            __ZNK4chip11Credentials24OperationalCredentialSet12GetDevOpCredERKNS0_16CertificateKeyIdE,
                            __ZNK4chip11Credentials24OperationalCredentialSet15GetDevOpCredLenERKNS0_16CertificateKeyIdE,
                            __ZNK4chip11Credentials6ChipDN7IsEmptyEv,
                            __ZNK4chip11Credentials7ChipRDN7IsEmptyEv,
                            __ZNK4chip11DeviceLayer15ChipDeviceEvent10IsInternalEv,
                            __ZNK4chip12PacketHeader12GetMessageIdEv,
                            __ZNK4chip12PacketHeader13EncodeAtStartERKNS_6System18PacketBufferHandleEPt,
                            __ZNK4chip12PacketHeader15GetSourceNodeIdEv,
                            __ZNK4chip12PacketHeader17GetEncryptionTypeEv,
                            __ZNK4chip12PacketHeader18GetEncryptionKeyIDEv,
                            __ZNK4chip12PacketHeader20GetDestinationNodeIdEv,
                            __ZNK4chip12PacketHeader8GetFlagsEv,
                            __ZNK4chip13PayloadHeader11HasProtocolENS_9Protocols2IdE,
                            __ZNK4chip13PayloadHeader11IsInitiatorEv,
                            __ZNK4chip13PayloadHeader12HaveVendorIdEv,
                            __ZNK4chip13PayloadHeader13EncodeAtStartERKNS_6System18PacketBufferHandleEPt,
                            __ZNK4chip13PayloadHeader13GetExchangeIDEv,
                            __ZNK4chip13PayloadHeader13GetProtocolIDEv,
                            __ZNK4chip13PayloadHeader14GetMessageTypeEv,
                            __ZNK4chip13PayloadHeader14HasMessageTypeEh,
                            __ZNK4chip13PayloadHeader14HasMessageTypeINS_9Protocols13SecureChannel7MsgTypeEvEEbT_,
                            __ZNK4chip13PayloadHeader14HasMessageTypeINS_9Protocols16InteractionModel7MsgTypeEvEEbT_,
                            __ZNK4chip13PayloadHeader8GetAckIdEv,
                            __ZNK4chip13PayloadHeader8IsAckMsgEv,
                            __ZNK4chip13PayloadHeader8NeedsAckEv,
                            __ZNK4chip15DataModelReader10OctetsReadEv,
                            __ZNK4chip15DataModelReader10StatusCodeEv,
                            __ZNK4chip16ReferenceCountedINS_9Messaging15ExchangeContextENS1_22ExchangeContextDeletorELi1EE17GetReferenceCountEv,
                            __ZNK4chip16SecureSessionMgr19GetTransportManagerEv,
                            __ZNK4chip19SecureSessionHandle13GetPeerNodeIdEv,
                            __ZNK4chip19SecureSessionHandleeqERKS0_,
                            __ZNK4chip19StaticAllocatorBase8CapacityEv,
                            __ZNK4chip20RendezvousParameters11HasBleLayerEv,
                            __ZNK4chip20RendezvousParameters14GetPeerAddressEv,
                            __ZNK4chip20RendezvousParameters15GetSetupPINCodeEv,
                            __ZNK4chip20RendezvousParameters16GetDiscriminatorEv,
                            __ZNK4chip20RendezvousParameters16HasDiscriminatorEv,
                            __ZNK4chip20RendezvousParameters19GetConnectionObjectEv,
                            __ZNK4chip20RendezvousParameters19HasConnectionObjectEv,
                            __ZNK4chip25MessageAuthenticationCode6GetTagEv,
                            __ZNK4chip27EncryptedPacketBufferHandle16HasChainedBufferEv,
                            __ZNK4chip36SessionEstablishmentExchangeDispatch14GetPeerAddressEv,
                            __ZNK4chip3Ble15BleEndPointPool3GetEm,
                            __ZNK4chip3Ble15BleEndPointPool7GetFreeEv,
                            __ZNK4chip3Ble9BtpEngine12ExpectingAckEv,
                            __ZNK4chip3TLV21CHIPCircularTLVBuffer10DataLengthEv,
                            __ZNK4chip3TLV21CHIPCircularTLVBuffer18GetTotalDataLengthEv,
                            __ZNK4chip3TLV21CHIPCircularTLVBuffer19AvailableDataLengthEv,
                            __ZNK4chip3TLV21CHIPCircularTLVBuffer9QueueTailEv,
                            __ZNK4chip3TLV9TLVReader12GetReadPointEv,
                            __ZNK4chip3TLV9TLVReader13GetLengthReadEv,
                            __ZNK4chip3TLV9TLVReader15IsContainerOpenEv,
                            __ZNK4chip3TLV9TLVReader16GetContainerTypeEv,
                            __ZNK4chip3TLV9TLVReader18GetRemainingLengthEv,
                            __ZNK4chip3TLV9TLVReader6GetTagEv,
                            __ZNK4chip3TLV9TLVWriter15IsContainerOpenEv,
                            __ZNK4chip3TLV9TLVWriter16GetLengthWrittenEv,
                            __ZNK4chip3TLV9TLVWriter24IsCloseContainerReservedEv,
                            __ZNK4chip3app10ReadClient6IsFreeEv,
                            __ZNK4chip3app11ReadHandler12IsReportableEv,
                            __ZNK4chip3app11ReadHandler6IsFreeEv,
                            __ZNK4chip3app19LogStorageResources17InitializeCounterEv,
                            __ZNK4chip3app22InteractionModelEngine18GetExchangeManagerEv,
                            __ZNK4chip3app6Parser14GetSimpleValueIbEEihNS_3TLV7TLVTypeEPT_,
                            __ZNK4chip3app6Parser14GetSimpleValueIhEEihNS_3TLV7TLVTypeEPT_,
                            __ZNK4chip3app6Parser14GetSimpleValueItEEihNS_3TLV7TLVTypeEPT_,
                            __ZNK4chip3app6Parser14GetSimpleValueIyEEihNS_3TLV7TLVTypeEPT_,
                            __ZNK4chip3app6Parser18GetUnsignedIntegerIhEEihPT_,
                            __ZNK4chip3app6Parser18GetUnsignedIntegerItEEihPT_,
                            __ZNK4chip3app6Parser18GetUnsignedIntegerIyEEihPT_,
                            __ZNK4chip3app7Builder8GetErrorEv,
                            __ZNK4chip3app7Command6IsFreeEv,
                            __ZNK4chip4ASN110ASN1Reader11GetValueLenEv,
                            __ZNK4chip4ASN110ASN1Reader13IsConstructedEv,
                            __ZNK4chip4ASN110ASN1Reader15IsEndOfContentsEv,
                            __ZNK4chip4ASN110ASN1Reader15IsIndefiniteLenEv,
                            __ZNK4chip4ASN110ASN1Reader6GetTagEv,
                            __ZNK4chip4ASN110ASN1Reader8GetClassEv,
                            __ZNK4chip4ASN110ASN1Reader8GetValueEv,
                            __ZNK4chip4Inet11TCPEndPoint11IsConnectedEv,
                            __ZNK4chip4Inet12SocketEvents10IsReadableEv,
                            __ZNK4chip4Inet12SocketEvents11IsWriteableEv,
                            __ZNK4chip4Inet12SocketEvents5IsSetEv,
                            __ZNK4chip4Inet12SocketEvents7IsErrorEv,
                            __ZNK4chip4Inet14InetLayerBasis20IsCreatedByInetLayerERKNS0_9InetLayerE,
                            __ZNK4chip4Inet14InetLayerBasis5LayerEv,
                            __ZNK4chip4Inet9IPAddress8ToStringILj46EEEPcRAT__c,
                            __ZNK4chip4Inet9IPAddress8ToStringILj47EEEPcRAT__c,
                            __ZNK4chip4Mdns21BaseAdvertisingParamsINS0_31CommissionAdvertisingParametersEE6GetMacEv,
                            __ZNK4chip4Mdns21BaseAdvertisingParamsINS0_32OperationalAdvertisingParametersEE6GetMacEv,
                            __ZNK4chip4Mdns22CommissionableNodeData6IsHostEPKc,
                            __ZNK4chip4Mdns22CommissionableNodeData7IsValidEv,
                            __ZNK4chip4Mdns31CommissionAdvertisingParameters11GetVendorIdEv,
                            __ZNK4chip4Mdns31CommissionAdvertisingParameters12GetProductIdEv,
                            __ZNK4chip4Mdns31CommissionAdvertisingParameters13GetDeviceNameEv,
                            __ZNK4chip4Mdns31CommissionAdvertisingParameters13GetDeviceTypeEv,
                            __ZNK4chip4Mdns31CommissionAdvertisingParameters13GetRotatingIdEv,
                            __ZNK4chip4Mdns31CommissionAdvertisingParameters14GetPairingHintEv,
                            __ZNK4chip4Mdns31CommissionAdvertisingParameters15GetPairingInstrEv,
                            __ZNK4chip4Mdns31CommissionAdvertisingParameters20GetCommissioningModeEv,
                            __ZNK4chip4Mdns31CommissionAdvertisingParameters20GetLongDiscriminatorEv,
                            __ZNK4chip4Mdns31CommissionAdvertisingParameters21GetShortDiscriminatorEv,
                            __ZNK4chip4Mdns31CommissionAdvertisingParameters26GetCommissionAdvertiseModeEv,
                            __ZNK4chip4Mdns31CommissionAdvertisingParameters30GetOpenWindowCommissioningModeEv,
                            __ZNK4chip4Mdns32OperationalAdvertisingParameters20GetMRPRetryIntervalsERjS2_,
                            __ZNK4chip4Mdns32OperationalAdvertisingParameters9GetPeerIdEv,
                            __ZNK4chip4SpanIhE4dataEv, __ZNK4chip4SpanIhE4sizeEv,
                            __ZNK4chip6Crypto19CapacityBoundBufferILm32EE6LengthEv,
                            __ZNK4chip6Crypto19CapacityBoundBufferILm32EE8CapacityEv,
                            __ZNK4chip6Crypto19CapacityBoundBufferILm72EE6LengthEv,
                            __ZNK4chip6Crypto19CapacityBoundBufferILm72EE8CapacityEv,
                            __ZNK4chip6Crypto19CapacityBoundBufferILm72EEcvPKhEv,
                            __ZNK4chip6Crypto19CapacityBoundBufferILm97EE6LengthEv,
                            __ZNK4chip6Crypto19CapacityBoundBufferILm97EE8CapacityEv,
                            __ZNK4chip6PeerId11GetFabricIdEv,
                            __ZNK4chip6PeerId9GetNodeIdEv,
                            __ZNK4chip6System12PacketBuffer10DataLengthEv,
                            __ZNK4chip6System12PacketBuffer11TotalLengthEv,
                            __ZNK4chip6System12PacketBuffer13ChainedBufferEv,
                            __ZNK4chip6System12PacketBuffer16HasChainedBufferEv,
                            __ZNK4chip6System12PacketBuffer5StartEv,
                            __ZNK4chip6System12PacketBuffer9AllocSizeEv,
                            __ZNK4chip6System15SystemWakeEvent10GetNotifFDEv,
                            __ZNK4chip6System18PacketBufferHandle6IsNullEv,
                            __ZNK4chip6System18PacketBufferHandle6RetainEv,
                            __ZNK4chip6System18PacketBufferHandleptEv,
                            __ZNK4chip6System5Layer5StateEv,
                            __ZNK4chip6System6Object10IsRetainedERKNS0_5LayerE,
                            __ZNK4chip6System6Object11SystemLayerEv,
                            __ZNK4chip8BitFlagsINS_11Credentials13KeyUsageFlagsEtE3HasES2_,
                            __ZNK4chip8BitFlagsINS_11Credentials13KeyUsageFlagsEtE3RawEv,
                            __ZNK4chip8BitFlagsINS_11Credentials13KeyUsageFlagsEtE6HasAllIJRS3_EEEbDpOT_,
                            __ZNK4chip8BitFlagsINS_11Credentials13KeyUsageFlagsEtE6HasAnyEv,
                            __ZNK4chip8BitFlagsINS_11Credentials13KeyUsageFlagsEtE7HasOnlyIJS2_S2_S2_S2_S2_S2_S2_S2_S2_EEEbDpOT_,
                            __ZNK4chip8BitFlagsINS_11Credentials15CertDecodeFlagsEhE3HasES2_,
                            __ZNK4chip8BitFlagsINS_11Credentials15KeyPurposeFlagsEhE3RawEv,
                            __ZNK4chip8BitFlagsINS_11Credentials15KeyPurposeFlagsEhE6HasAllIJRS3_EEEbDpOT_,
                            __ZNK4chip8BitFlagsINS_11Credentials15KeyPurposeFlagsEhE6HasAnyEv,
                            __ZNK4chip8BitFlagsINS_11Credentials17CertValidateFlagsEhE3HasES2_,
                            __ZNK4chip8BitFlagsINS_11Credentials9CertFlagsEtE3HasES2_,
                            __ZNK4chip8BitFlagsINS_11Credentials9CertFlagsEtE3RawEv,
                            __ZNK4chip8BitFlagsINS_11Credentials9CertFlagsEtE6HasAllIJS2_S2_EEEbDpOT_,
                            __ZNK4chip8BitFlagsINS_11DeviceLayer8Internal31GenericConfigurationManagerImplINS1_24ConfigurationManagerImplEE5FlagsEhE3HasES6_,
                            __ZNK4chip8BitFlagsINS_25RendezvousInformationFlagEhE3RawEv,
                            __ZNK4chip8BitFlagsINS_25RendezvousInformationFlagEhE6HasAnyIJRS2_EEEbDpOT_,
                            __ZNK4chip8BitFlagsINS_25RendezvousInformationFlagEhE7HasOnlyIJRS2_EEEbDpOT_,
                            __ZNK4chip8BitFlagsINS_25RendezvousInformationFlagEhEcvS1_Ev,
                            __ZNK4chip8BitFlagsINS_3Ble11BLEEndPoint14TimerStateFlagEhE3HasES3_,
                            __ZNK4chip8BitFlagsINS_3Ble11BLEEndPoint19ConnectionStateFlagEhE3HasES3_,
                            __ZNK4chip8BitFlagsINS_3Ble9BtpEngine11HeaderFlagsEhE3HasES3_,
                            __ZNK4chip8BitFlagsINS_3Ble9BtpEngine11HeaderFlagsEhE3RawEv,
                            __ZNK4chip8BitFlagsINS_3Ble9BtpEngine11HeaderFlagsEhE6HasAnyIJS3_S3_EEEbDpOT_,
                            __ZNK4chip8BitFlagsINS_3Ble9BtpEngine11HeaderFlagsEhE6HasAnyIJS3_S3_S3_EEEbDpOT_,
                            __ZNK4chip8BitFlagsINS_3app11ClusterInfo5FlagsEhE3HasES3_,
                            __ZNK4chip8BitFlagsINS_3app16CommandPathFlagsEhE3HasES2_,
                            __ZNK4chip8BitFlagsINS_3app19AttributePathParams5FlagsEhE3HasES3_,
                            __ZNK4chip8BitFlagsINS_6Header10FlagValuesEtE3HasES2_,
                            __ZNK4chip8BitFlagsINS_6Header10FlagValuesEtE3RawEv,
                            __ZNK4chip8BitFlagsINS_6Header12ExFlagValuesEhE3HasES2_,
                            __ZNK4chip8BitFlagsINS_6Header12ExFlagValuesEhE3RawEv,
                            __ZNK4chip8BitFlagsINS_9Messaging16SendMessageFlagsEtE3HasES2_,
                            __ZNK4chip8BitFlagsINS_9Messaging17MessageFlagValuesEjE3HasES2_,
                            __ZNK4chip8BitFlagsINS_9Messaging22ReliableMessageContext5FlagsEtE3HasES3_,
                            __ZNK4chip8Encoding12BufferWriter3FitERm,
                            __ZNK4chip8Encoding12BufferWriter3FitEv,
                            __ZNK4chip8Encoding12BufferWriter6NeededEv,
                            __ZNK4chip8Encoding12BufferWriter9AvailableEv,
                            __ZNK4chip8Encoding12LittleEndian6Reader10OctetsReadEv,
                            __ZNK4chip8Encoding12LittleEndian6Reader10StatusCodeEv,
                            __ZNK4chip8Encoding22PacketBufferWriterBaseINS0_12BufferWriterEE6IsNullEv,
                            __ZNK4chip8Encoding22PacketBufferWriterBaseINS0_12LittleEndian12BufferWriterEE6IsNullEv,
                            __ZNK4chip8OptionalINS_4Inet9IPAddressEE5ValueEv,
                            __ZNK4chip8OptionalINS_4Inet9IPAddressEE7ValueOrERKS2_,
                            __ZNK4chip8OptionalINS_4Inet9IPAddressEE8HasValueEv,
                            __ZNK4chip8OptionalINS_9Transport11PeerAddressEE5ValueEv,
                            __ZNK4chip8OptionalINS_9Transport11PeerAddressEE8HasValueEv,
                            __ZNK4chip8OptionalIPKcE5ValueEv,
                            __ZNK4chip8OptionalIPKcE8HasValueEv,
                            __ZNK4chip8OptionalIjE5ValueEv,
                            __ZNK4chip8OptionalIjE8HasValueEv,
                            __ZNK4chip8OptionalItE5ValueEv,
                            __ZNK4chip8OptionalItE8HasValueEv,
                            __ZNK4chip8OptionalIyE5ValueEv,
                            __ZNK4chip8OptionalIyE7ValueOrERKy,
                            __ZNK4chip8OptionalIyE8HasValueEv,
                            __ZNK4chip8Platform4Impl22ScopedMemoryBufferBaseINS1_24PlatformMemoryManagementEEcvbEv,
                            __ZNK4chip8Platform4Impl22ScopedMemoryBufferBaseINS1_24PlatformMemoryManagementEEntEv,
                            __ZNK4chip9FixedSpanIhLm8EE4dataEv,
                            __ZNK4chip9Messaging15ExchangeContext11GetDelegateEv,
                            __ZNK4chip9Messaging15ExchangeContext13GetExchangeIdEv,
                            __ZNK4chip9Messaging15ExchangeContext14GetExchangeMgrEv,
                            __ZNK4chip9Messaging15ExchangeManager13GetSessionMgrEv,
                            __ZNK4chip9Messaging15ExchangeManager25UnsolicitedMessageHandler7IsInUseEv,
                            __ZNK4chip9Messaging15ExchangeManager25UnsolicitedMessageHandler7MatchesENS_9Protocols2IdEs,
                            __ZNK4chip9Protocols2Id11GetVendorIdEv,
                            __ZNK4chip9Protocols2Id13GetProtocolIdEv,
                            __ZNK4chip9Protocols2Id14ToTLVProfileIdEv,
                            __ZNK4chip9Protocols2Id24ToFullyQualifiedSpecFormEv,
                            __ZNK4chip9Protocols2Id8ToUint32Ev,
                            __ZNK4chip9Protocols2IdeqERKS1_,
                            __ZNK4chip9Transport11PeerAddress12GetIPAddressEv,
                            __ZNK4chip9Transport11PeerAddress12GetInterfaceEv,
                            __ZNK4chip9Transport11PeerAddress13IsInitializedEv,
                            __ZNK4chip9Transport11PeerAddress16GetTransportTypeEv,
                            __ZNK4chip9Transport11PeerAddress7GetPortEv,
                            __ZNK4chip9Transport11PeerAddress8ToStringEPcm,
                            __ZNK4chip9Transport11PeerAddress8ToStringILm57EEEvRAT__c,
                            __ZNK4chip9Transport11PeerAddresseqERKS1_,
                            __ZNK4chip9Transport11PeerAddressneERKS1_,
                            __ZNK4chip9Transport16AdminPairingInfo10GetAdminIdEv,
                            __ZNK4chip9Transport16AdminPairingInfo11GetFabricIdEv,
                            __ZNK4chip9Transport16AdminPairingInfo11GetVendorIdEv,
                            __ZNK4chip9Transport16AdminPairingInfo13IsInitializedEv,
                            __ZNK4chip9Transport16AdminPairingInfo23AreCredentialsAvailableEv,
                            __ZNK4chip9Transport16AdminPairingInfo9GetNodeIdEv,
                            __ZNK4chip9Transport18PeerMessageCounter6VerifyEj,
                            __ZNK4chip9Transport19BleListenParameters11GetBleLayerEv,
                            __ZNK4chip9Transport19PeerConnectionState10GetAdminIdEv,
                            __ZNK4chip9Transport19PeerConnectionState12GetPeerKeyIDEv,
                            __ZNK4chip9Transport19PeerConnectionState13GetLocalKeyIDEv,
                            __ZNK4chip9Transport19PeerConnectionState13GetPeerNodeIdEv,
                            __ZNK4chip9Transport19PeerConnectionState14GetPeerAddressEv,
                            __ZNK4chip9Transport19PeerConnectionState16DecryptOnReceiveEPKhmPhRKNS_12PacketHeaderERKNS_25MessageAuthenticationCodeE,
                            __ZNK4chip9Transport19PeerConnectionState17EncryptBeforeSendEPKhmPhRNS_12PacketHeaderERNS_25MessageAuthenticationCodeE,
                            __ZNK4chip9Transport19UdpListenParameters13GetListenPortEv,
                            __ZNK4chip9Transport19UdpListenParameters14GetAddressTypeEv,
                            __ZNK4chip9Transport19UdpListenParameters14GetInterfaceIdEv,
                            __ZNKSt3__115basic_stringbufIcNS_11char_traitsIcEENS_9allocatorIcEEE3strEv,
                            __ZNKSt3__16__treeINS_12__value_typeIhN4chip18OptionalQRCodeInfoEEENS_19__map_value_compareIhS4_NS_4lessIhEELb1EEENS_9allocatorIS4_EEE10__root_ptrEv,
                            __ZNKSt3__16__treeINS_12__value_typeIhN4chip27OptionalQRCodeInfoExtensionEEENS_19__map_value_compareIhS4_NS_4lessIhEELb1EEENS_9allocatorIS4_EEE10__root_ptrEv,
                            __ZNKSt3__16__treeINS_12__value_typeIhN4chip27OptionalQRCodeInfoExtensionEEENS_19__map_value_compareIhS4_NS_4lessIhEELb1EEENS_9allocatorIS4_EEE13__lower_boundIhEENS_21__tree_const_iteratorIS4_PNS_11__tree_nodeIS4_PvEElEERKT_SH_PNS_15__tree_end_nodeIPNS_16__tree_node_baseISF_EEEE,
                            __ZNKSt3__16__treeINS_12__value_typeIhN4chip27OptionalQRCodeInfoExtensionEEENS_19__map_value_compareIhS4_NS_4lessIhEELb1EEENS_9allocatorIS4_EEE4findIhEENS_21__tree_const_iteratorIS4_PNS_11__tree_nodeIS4_PvEElEERKT_,
                            __ZNKSt3__16bitsetILm32EE4testEm,
                            __ZNKSt3__16vectorIN4chip18OptionalQRCodeInfoENS_9allocatorIS2_EEE8max_sizeEv,
                            __ZNKSt3__16vectorIN4chip27OptionalQRCodeInfoExtensionENS_9allocatorIS2_EEE8max_sizeEv,
                            __ZNKSt3__16vectorIN4chip4Mdns11MdnsServiceENS_9allocatorIS3_EEE8max_sizeEv,
                            __ZNKSt3__16vectorIN4chip4Mdns9TextEntryENS_9allocatorIS3_EEE8max_sizeEv,
                            __ZNKSt3__16vectorIPN4chip4Mdns14GenericContextENS_9allocatorIS4_EEE8max_sizeEv,
                            __ZNKSt3__16vectorIhNS_9allocatorIhEEE8max_sizeEv,
                            __ZNKSt3__16vectorImNS_9allocatorImEEE8max_sizeEv,
                            __ZNO4chip27EncryptedPacketBufferHandle14CastToWritableEv,
                            __ZNO4chip6System18PacketBufferHandle13UnsafeReleaseEv,
                            __ZNSt3__111__tree_leafIPNS_16__tree_node_baseIPvEEEET_S5_,
                            __ZNSt3__111__tree_nextIPNS_16__tree_node_baseIPvEEEET_S5_,
                            __ZNSt3__111char_traitsIcE11eq_int_typeEii,
                            __ZNSt3__111char_traitsIcE11to_int_typeEc,
                            __ZNSt3__111char_traitsIcE12to_char_typeEi,
                            __ZNSt3__111char_traitsIcE2eqEcc,
                            __ZNSt3__111char_traitsIcE3eofEv,
                            __ZNSt3__111char_traitsIcE4findEPKcmRS2_,
                            __ZNSt3__111char_traitsIcE6assignERcRKc,
                            __ZNSt3__111char_traitsIcE6lengthEPKc,
                            __ZNSt3__111char_traitsIcE7compareEPKcS3_m,
                            __ZNSt3__111char_traitsIcE7not_eofEi,
                            __ZNSt3__112basic_stringIcNS_11char_traitsIcEENS_9allocatorIcEEE10__align_itILm16EEEmm,
                            __ZNSt3__112basic_stringIcNS_11char_traitsIcEENS_9allocatorIcEEE6__initIPcEENS_9_MetaBaseIXsr27__is_cpp17_forward_iteratorIT_EE5valueEE13_EnableIfImplIvEES9_S9_,
                            __ZNSt3__113__fill_n_trueINS_8__bitsetILm1ELm32EEEEEvNS_14__bit_iteratorIT_Lb0EXLi0EEEENS4_9size_typeE,
                            __ZNSt3__113__tree_removeIPNS_16__tree_node_baseIPvEEEEvT_S5_,
                            __ZNSt3__114__fill_n_falseINS_8__bitsetILm1ELm32EEEEEvNS_14__bit_iteratorIT_Lb0EXLi0EEEENS4_9size_typeE,
                            __ZNSt3__116allocator_traitsINS_9allocatorIN4chip18OptionalQRCodeInfoEEEE7destroyIS3_vEEvRS4_PT_,
                            __ZNSt3__116allocator_traitsINS_9allocatorIN4chip18OptionalQRCodeInfoEEEE8max_sizeIS4_vEEmRKS4_,
                            __ZNSt3__116allocator_traitsINS_9allocatorIN4chip18OptionalQRCodeInfoEEEE9constructIS3_JRKS3_EvEEvRS4_PT_DpOT0_,
                            __ZNSt3__116allocator_traitsINS_9allocatorIN4chip18OptionalQRCodeInfoEEEE9constructIS3_JS3_EvEEvRS4_PT_DpOT0_,
                            __ZNSt3__116allocator_traitsINS_9allocatorIN4chip27OptionalQRCodeInfoExtensionEEEE7destroyIS3_vEEvRS4_PT_,
                            __ZNSt3__116allocator_traitsINS_9allocatorIN4chip27OptionalQRCodeInfoExtensionEEEE8max_sizeIS4_vEEmRKS4_,
                            __ZNSt3__116allocator_traitsINS_9allocatorIN4chip27OptionalQRCodeInfoExtensionEEEE9constructIS3_JRKS3_EvEEvRS4_PT_DpOT0_,
                            __ZNSt3__116allocator_traitsINS_9allocatorIN4chip27OptionalQRCodeInfoExtensionEEEE9constructIS3_JS3_EvEEvRS4_PT_DpOT0_,
                            __ZNSt3__116allocator_traitsINS_9allocatorIN4chip4Mdns11MdnsServiceEEEE7destroyIS4_vEEvRS5_PT_,
                            __ZNSt3__116allocator_traitsINS_9allocatorIN4chip4Mdns11MdnsServiceEEEE8max_sizeIS5_vEEmRKS5_,
                            __ZNSt3__116allocator_traitsINS_9allocatorIN4chip4Mdns11MdnsServiceEEEE9constructIS4_JRKS4_EvEEvRS5_PT_DpOT0_,
                            __ZNSt3__116allocator_traitsINS_9allocatorIN4chip4Mdns9TextEntryEEEE7destroyIS4_vEEvRS5_PT_,
                            __ZNSt3__116allocator_traitsINS_9allocatorIN4chip4Mdns9TextEntryEEEE8max_sizeIS5_vEEmRKS5_,
                            __ZNSt3__116allocator_traitsINS_9allocatorIN4chip4Mdns9TextEntryEEEE9constructIS4_JS4_EvEEvRS5_PT_DpOT0_,
                            __ZNSt3__116allocator_traitsINS_9allocatorINS_11__tree_nodeINS_12__value_typeIhN4chip18OptionalQRCodeInfoEEEPvEEEEE7destroyINS_4pairIKhS5_EEvvEEvRS9_PT_,
                            __ZNSt3__116allocator_traitsINS_9allocatorINS_11__tree_nodeINS_12__value_typeIhN4chip18OptionalQRCodeInfoEEEPvEEEEE8max_sizeIS9_vEEmRKS9_,
                            __ZNSt3__116allocator_traitsINS_9allocatorINS_11__tree_nodeINS_12__value_typeIhN4chip18OptionalQRCodeInfoEEEPvEEEEE9constructINS_4pairIKhS5_EEJRKNS_21piecewise_construct_tENS_5tupleIJRSD_EEENSI_IJEEEEvEEvRS9_PT_DpOT0_,
                            __ZNSt3__116allocator_traitsINS_9allocatorINS_11__tree_nodeINS_12__value_typeIhN4chip27OptionalQRCodeInfoExtensionEEEPvEEEEE7destroyINS_4pairIKhS5_EEvvEEvRS9_PT_,
                            __ZNSt3__116allocator_traitsINS_9allocatorINS_11__tree_nodeINS_12__value_typeIhN4chip27OptionalQRCodeInfoExtensionEEEPvEEEEE8max_sizeIS9_vEEmRKS9_,
                            __ZNSt3__116allocator_traitsINS_9allocatorINS_11__tree_nodeINS_12__value_typeIhN4chip27OptionalQRCodeInfoExtensionEEEPvEEEEE9constructINS_4pairIKhS5_EEJRKNS_21piecewise_construct_tENS_5tupleIJRSD_EEENSI_IJEEEEvEEvRS9_PT_DpOT0_,
                            __ZNSt3__116allocator_traitsINS_9allocatorIPN4chip4Mdns14GenericContextEEEE7destroyIS5_vEEvRS6_PT_,
                            __ZNSt3__116allocator_traitsINS_9allocatorIPN4chip4Mdns14GenericContextEEEE8max_sizeIS6_vEEmRKS6_,
                            __ZNSt3__116allocator_traitsINS_9allocatorIPN4chip4Mdns14GenericContextEEEE9constructIS5_JRKS5_EvEEvRS6_PT_DpOT0_,
                            __ZNSt3__116allocator_traitsINS_9allocatorIcEEE8max_sizeIS2_vEEmRKS2_,
                            __ZNSt3__116allocator_traitsINS_9allocatorIhEEE37select_on_container_copy_constructionIS2_vvEES2_RKS2_,
                            __ZNSt3__116allocator_traitsINS_9allocatorIhEEE7destroyIhvEEvRS2_PT_,
                            __ZNSt3__116allocator_traitsINS_9allocatorIhEEE8max_sizeIS2_vEEmRKS2_,
                            __ZNSt3__116allocator_traitsINS_9allocatorIhEEE9constructIhJhEvEEvRS2_PT_DpOT0_,
                            __ZNSt3__116allocator_traitsINS_9allocatorImEEE7destroyImvEEvRS2_PT_,
                            __ZNSt3__116allocator_traitsINS_9allocatorImEEE8max_sizeIS2_vEEmRKS2_,
                            __ZNSt3__116allocator_traitsINS_9allocatorImEEE9constructImJmEvEEvRS2_PT_DpOT0_,
                            __ZNSt3__118__search_substringIcNS_11char_traitsIcEEEEPKT_S5_S5_S5_S5_,
                            __ZNSt3__118__tree_left_rotateIPNS_16__tree_node_baseIPvEEEEvT_,
                            __ZNSt3__119__tree_right_rotateIPNS_16__tree_node_baseIPvEEEEvT_,
                            __ZNSt3__123__copy_backward_alignedINS_8__bitsetILm1ELm32EEELb0EEENS_14__bit_iteratorIT_Lb0EXLi0EEEENS3_IS4_XT0_EXLi0EEEES6_S5_,
                            __ZNSt3__124__put_character_sequenceIcNS_11char_traitsIcEEEERNS_13basic_ostreamIT_T0_EES7_PKS4_m,
                            __ZNSt3__125__copy_backward_unalignedINS_8__bitsetILm1ELm32EEELb0EEENS_14__bit_iteratorIT_Lb0EXLi0EEEENS3_IS4_XT0_EXLi0EEEES6_S5_,
                            __ZNSt3__127__tree_balance_after_insertIPNS_16__tree_node_baseIPvEEEEvT_S5_,
                            __ZNSt3__13mapIhN4chip18OptionalQRCodeInfoENS_4lessIhEENS_9allocatorINS_4pairIKhS2_EEEEEixERS7_,
                            __ZNSt3__13mapIhN4chip27OptionalQRCodeInfoExtensionENS_4lessIhEENS_9allocatorINS_4pairIKhS2_EEEEEixERS7_,
                            __ZNSt3__16__treeINS_12__value_typeIhN4chip18OptionalQRCodeInfoEEENS_19__map_value_compareIhS4_NS_4lessIhEELb1EEENS_9allocatorIS4_EEE12__find_equalIhEERPNS_16__tree_node_baseIPvEENS_21__tree_const_iteratorIS4_PNS_11__tree_nodeIS4_SE_EElEERPNS_15__tree_end_nodeISG_EESH_RKT_,
                            __ZNSt3__16__treeINS_12__value_typeIhN4chip18OptionalQRCodeInfoEEENS_19__map_value_compareIhS4_NS_4lessIhEELb1EEENS_9allocatorIS4_EEE12__find_equalIhEERPNS_16__tree_node_baseIPvEERPNS_15__tree_end_nodeISG_EERKT_,
                            __ZNSt3__16__treeINS_12__value_typeIhN4chip18OptionalQRCodeInfoEEENS_19__map_value_compareIhS4_NS_4lessIhEELb1EEENS_9allocatorIS4_EEE13__lower_boundIhEENS_15__tree_iteratorIS4_PNS_11__tree_nodeIS4_PvEElEERKT_SH_PNS_15__tree_end_nodeIPNS_16__tree_node_baseISF_EEEE,
                            __ZNSt3__16__treeINS_12__value_typeIhN4chip18OptionalQRCodeInfoEEENS_19__map_value_compareIhS4_NS_4lessIhEELb1EEENS_9allocatorIS4_EEE14__assign_multiINS_21__tree_const_iteratorIS4_PNS_11__tree_nodeIS4_PvEElEEEEvT_SJ_,
                            __ZNSt3__16__treeINS_12__value_typeIhN4chip18OptionalQRCodeInfoEEENS_19__map_value_compareIhS4_NS_4lessIhEELb1EEENS_9allocatorIS4_EEE14__erase_uniqueIhEEmRKT_,
                            __ZNSt3__16__treeINS_12__value_typeIhN4chip18OptionalQRCodeInfoEEENS_19__map_value_compareIhS4_NS_4lessIhEELb1EEENS_9allocatorIS4_EEE15__emplace_multiIJRKNS_4pairIKhS3_EEEEENS_15__tree_iteratorIS4_PNS_11__tree_nodeIS4_PvEElEEDpOT_,
                            __ZNSt3__16__treeINS_12__value_typeIhN4chip18OptionalQRCodeInfoEEENS_19__map_value_compareIhS4_NS_4lessIhEELb1EEENS_9allocatorIS4_EEE16__construct_nodeIJRKNS_21piecewise_construct_tENS_5tupleIJRKhEEENSG_IJEEEEEENS_10unique_ptrINS_11__tree_nodeIS4_PvEENS_22__tree_node_destructorINS9_ISO_EEEEEEDpOT_,
                            __ZNSt3__16__treeINS_12__value_typeIhN4chip18OptionalQRCodeInfoEEENS_19__map_value_compareIhS4_NS_4lessIhEELb1EEENS_9allocatorIS4_EEE16__construct_nodeIJRKNS_4pairIKhS3_EEEEENS_10unique_ptrINS_11__tree_nodeIS4_PvEENS_22__tree_node_destructorINS9_ISL_EEEEEEDpOT_,
                            __ZNSt3__16__treeINS_12__value_typeIhN4chip18OptionalQRCodeInfoEEENS_19__map_value_compareIhS4_NS_4lessIhEELb1EEENS_9allocatorIS4_EEE16__find_leaf_highERPNS_15__tree_end_nodeIPNS_16__tree_node_baseIPvEEEERKh,
                            __ZNSt3__16__treeINS_12__value_typeIhN4chip18OptionalQRCodeInfoEEENS_19__map_value_compareIhS4_NS_4lessIhEELb1EEENS_9allocatorIS4_EEE16__insert_node_atEPNS_15__tree_end_nodeIPNS_16__tree_node_baseIPvEEEERSG_SG_,
                            __ZNSt3__16__treeINS_12__value_typeIhN4chip18OptionalQRCodeInfoEEENS_19__map_value_compareIhS4_NS_4lessIhEELb1EEENS_9allocatorIS4_EEE25__emplace_unique_key_argsIhJRKNS_21piecewise_construct_tENS_5tupleIJRKhEEENSG_IJEEEEEENS_4pairINS_15__tree_iteratorIS4_PNS_11__tree_nodeIS4_PvEElEEbEERKT_DpOT0_,
                            __ZNSt3__16__treeINS_12__value_typeIhN4chip18OptionalQRCodeInfoEEENS_19__map_value_compareIhS4_NS_4lessIhEELb1EEENS_9allocatorIS4_EEE30__emplace_hint_unique_key_argsIhJRKNS_4pairIKhS3_EEEEENSD_INS_15__tree_iteratorIS4_PNS_11__tree_nodeIS4_PvEElEEbEENS_21__tree_const_iteratorIS4_SM_lEERKT_DpOT0_,
                            __ZNSt3__16__treeINS_12__value_typeIhN4chip18OptionalQRCodeInfoEEENS_19__map_value_compareIhS4_NS_4lessIhEELb1EEENS_9allocatorIS4_EEE4findIhEENS_15__tree_iteratorIS4_PNS_11__tree_nodeIS4_PvEElEERKT_,
                            __ZNSt3__16__treeINS_12__value_typeIhN4chip18OptionalQRCodeInfoEEENS_19__map_value_compareIhS4_NS_4lessIhEELb1EEENS_9allocatorIS4_EEE5eraseENS_21__tree_const_iteratorIS4_PNS_11__tree_nodeIS4_PvEElEE,
                            __ZNSt3__16__treeINS_12__value_typeIhN4chip18OptionalQRCodeInfoEEENS_19__map_value_compareIhS4_NS_4lessIhEELb1EEENS_9allocatorIS4_EEE7destroyEPNS_11__tree_nodeIS4_PvEE,
                            __ZNSt3__16__treeINS_12__value_typeIhN4chip18OptionalQRCodeInfoEEENS_19__map_value_compareIhS4_NS_4lessIhEELb1EEENS_9allocatorIS4_EEEaSERKSB_,
                            __ZNSt3__16__treeINS_12__value_typeIhN4chip27OptionalQRCodeInfoExtensionEEENS_19__map_value_compareIhS4_NS_4lessIhEELb1EEENS_9allocatorIS4_EEE12__find_equalIhEERPNS_16__tree_node_baseIPvEENS_21__tree_const_iteratorIS4_PNS_11__tree_nodeIS4_SE_EElEERPNS_15__tree_end_nodeISG_EESH_RKT_,
                            __ZNSt3__16__treeINS_12__value_typeIhN4chip27OptionalQRCodeInfoExtensionEEENS_19__map_value_compareIhS4_NS_4lessIhEELb1EEENS_9allocatorIS4_EEE12__find_equalIhEERPNS_16__tree_node_baseIPvEERPNS_15__tree_end_nodeISG_EERKT_,
                            __ZNSt3__16__treeINS_12__value_typeIhN4chip27OptionalQRCodeInfoExtensionEEENS_19__map_value_compareIhS4_NS_4lessIhEELb1EEENS_9allocatorIS4_EEE13__lower_boundIhEENS_15__tree_iteratorIS4_PNS_11__tree_nodeIS4_PvEElEERKT_SH_PNS_15__tree_end_nodeIPNS_16__tree_node_baseISF_EEEE,
                            __ZNSt3__16__treeINS_12__value_typeIhN4chip27OptionalQRCodeInfoExtensionEEENS_19__map_value_compareIhS4_NS_4lessIhEELb1EEENS_9allocatorIS4_EEE14__assign_multiINS_21__tree_const_iteratorIS4_PNS_11__tree_nodeIS4_PvEElEEEEvT_SJ_,
                            __ZNSt3__16__treeINS_12__value_typeIhN4chip27OptionalQRCodeInfoExtensionEEENS_19__map_value_compareIhS4_NS_4lessIhEELb1EEENS_9allocatorIS4_EEE14__erase_uniqueIhEEmRKT_,
                            __ZNSt3__16__treeINS_12__value_typeIhN4chip27OptionalQRCodeInfoExtensionEEENS_19__map_value_compareIhS4_NS_4lessIhEELb1EEENS_9allocatorIS4_EEE15__emplace_multiIJRKNS_4pairIKhS3_EEEEENS_15__tree_iteratorIS4_PNS_11__tree_nodeIS4_PvEElEEDpOT_,
                            __ZNSt3__16__treeINS_12__value_typeIhN4chip27OptionalQRCodeInfoExtensionEEENS_19__map_value_compareIhS4_NS_4lessIhEELb1EEENS_9allocatorIS4_EEE16__construct_nodeIJRKNS_21piecewise_construct_tENS_5tupleIJRKhEEENSG_IJEEEEEENS_10unique_ptrINS_11__tree_nodeIS4_PvEENS_22__tree_node_destructorINS9_ISO_EEEEEEDpOT_,
                            __ZNSt3__16__treeINS_12__value_typeIhN4chip27OptionalQRCodeInfoExtensionEEENS_19__map_value_compareIhS4_NS_4lessIhEELb1EEENS_9allocatorIS4_EEE16__construct_nodeIJRKNS_4pairIKhS3_EEEEENS_10unique_ptrINS_11__tree_nodeIS4_PvEENS_22__tree_node_destructorINS9_ISL_EEEEEEDpOT_,
                            __ZNSt3__16__treeINS_12__value_typeIhN4chip27OptionalQRCodeInfoExtensionEEENS_19__map_value_compareIhS4_NS_4lessIhEELb1EEENS_9allocatorIS4_EEE16__find_leaf_highERPNS_15__tree_end_nodeIPNS_16__tree_node_baseIPvEEEERKh,
                            __ZNSt3__16__treeINS_12__value_typeIhN4chip27OptionalQRCodeInfoExtensionEEENS_19__map_value_compareIhS4_NS_4lessIhEELb1EEENS_9allocatorIS4_EEE16__insert_node_atEPNS_15__tree_end_nodeIPNS_16__tree_node_baseIPvEEEERSG_SG_,
                            __ZNSt3__16__treeINS_12__value_typeIhN4chip27OptionalQRCodeInfoExtensionEEENS_19__map_value_compareIhS4_NS_4lessIhEELb1EEENS_9allocatorIS4_EEE25__emplace_unique_key_argsIhJRKNS_21piecewise_construct_tENS_5tupleIJRKhEEENSG_IJEEEEEENS_4pairINS_15__tree_iteratorIS4_PNS_11__tree_nodeIS4_PvEElEEbEERKT_DpOT0_,
                            __ZNSt3__16__treeINS_12__value_typeIhN4chip27OptionalQRCodeInfoExtensionEEENS_19__map_value_compareIhS4_NS_4lessIhEELb1EEENS_9allocatorIS4_EEE30__emplace_hint_unique_key_argsIhJRKNS_4pairIKhS3_EEEEENSD_INS_15__tree_iteratorIS4_PNS_11__tree_nodeIS4_PvEElEEbEENS_21__tree_const_iteratorIS4_SM_lEERKT_DpOT0_,
                            __ZNSt3__16__treeINS_12__value_typeIhN4chip27OptionalQRCodeInfoExtensionEEENS_19__map_value_compareIhS4_NS_4lessIhEELb1EEENS_9allocatorIS4_EEE4findIhEENS_15__tree_iteratorIS4_PNS_11__tree_nodeIS4_PvEElEERKT_,
                            __ZNSt3__16__treeINS_12__value_typeIhN4chip27OptionalQRCodeInfoExtensionEEENS_19__map_value_compareIhS4_NS_4lessIhEELb1EEENS_9allocatorIS4_EEE5eraseENS_21__tree_const_iteratorIS4_PNS_11__tree_nodeIS4_PvEElEE,
                            __ZNSt3__16__treeINS_12__value_typeIhN4chip27OptionalQRCodeInfoExtensionEEENS_19__map_value_compareIhS4_NS_4lessIhEELb1EEENS_9allocatorIS4_EEE7destroyEPNS_11__tree_nodeIS4_PvEE,
                            __ZNSt3__16__treeINS_12__value_typeIhN4chip27OptionalQRCodeInfoExtensionEEENS_19__map_value_compareIhS4_NS_4lessIhEELb1EEENS_9allocatorIS4_EEEaSERKSB_,
                            __ZNSt3__16bitsetILm32EE3setEmb,
                            __ZNSt3__16bitsetILm32EElSEm,
                            __ZNSt3__16vectorIN4chip18OptionalQRCodeInfoENS_9allocatorIS2_EEE13__move_assignERS5_NS_17integral_constantIbLb1EEE,
                            __ZNSt3__16vectorIN4chip18OptionalQRCodeInfoENS_9allocatorIS2_EEE13__vdeallocateEv,
                            __ZNSt3__16vectorIN4chip18OptionalQRCodeInfoENS_9allocatorIS2_EEE21__push_back_slow_pathIRKS2_EEvOT_,
                            __ZNSt3__16vectorIN4chip18OptionalQRCodeInfoENS_9allocatorIS2_EEE22__construct_one_at_endIJRKS2_EEEvDpOT_,
                            __ZNSt3__16vectorIN4chip18OptionalQRCodeInfoENS_9allocatorIS2_EEE26__swap_out_circular_bufferERNS_14__split_bufferIS2_RS4_EE,
                            __ZNSt3__16vectorIN4chip27OptionalQRCodeInfoExtensionENS_9allocatorIS2_EEE13__move_assignERS5_NS_17integral_constantIbLb1EEE,
                            __ZNSt3__16vectorIN4chip27OptionalQRCodeInfoExtensionENS_9allocatorIS2_EEE13__vdeallocateEv,
                            __ZNSt3__16vectorIN4chip27OptionalQRCodeInfoExtensionENS_9allocatorIS2_EEE21__push_back_slow_pathIRKS2_EEvOT_,
                            __ZNSt3__16vectorIN4chip27OptionalQRCodeInfoExtensionENS_9allocatorIS2_EEE22__construct_one_at_endIJRKS2_EEEvDpOT_,
                            __ZNSt3__16vectorIN4chip27OptionalQRCodeInfoExtensionENS_9allocatorIS2_EEE26__swap_out_circular_bufferERNS_14__split_bufferIS2_RS4_EE,
                            __ZNSt3__16vectorIN4chip4Mdns11MdnsServiceENS_9allocatorIS3_EEE21__push_back_slow_pathIRKS3_EEvOT_,
                            __ZNSt3__16vectorIN4chip4Mdns11MdnsServiceENS_9allocatorIS3_EEE22__construct_one_at_endIJRKS3_EEEvDpOT_,
                            __ZNSt3__16vectorIN4chip4Mdns11MdnsServiceENS_9allocatorIS3_EEE26__swap_out_circular_bufferERNS_14__split_bufferIS3_RS5_EE,
                            __ZNSt3__16vectorIN4chip4Mdns9TextEntryENS_9allocatorIS3_EEE21__push_back_slow_pathIS3_EEvOT_,
                            __ZNSt3__16vectorIN4chip4Mdns9TextEntryENS_9allocatorIS3_EEE22__construct_one_at_endIJS3_EEEvDpOT_,
                            __ZNSt3__16vectorIN4chip4Mdns9TextEntryENS_9allocatorIS3_EEE26__swap_out_circular_bufferERNS_14__split_bufferIS3_RS5_EE,
                            __ZNSt3__16vectorIPN4chip4Mdns14GenericContextENS_9allocatorIS4_EEE21__push_back_slow_pathIRKS4_EEvOT_,
                            __ZNSt3__16vectorIPN4chip4Mdns14GenericContextENS_9allocatorIS4_EEE22__construct_one_at_endIJRKS4_EEEvDpOT_,
                            __ZNSt3__16vectorIPN4chip4Mdns14GenericContextENS_9allocatorIS4_EEE26__swap_out_circular_bufferERNS_14__split_bufferIS4_RS6_EE,
                            __ZNSt3__16vectorIhNS_9allocatorIhEEE11__vallocateEm,
                            __ZNSt3__16vectorIhNS_9allocatorIhEEE18__construct_at_endIPhEENS_9enable_ifIXsr27__is_cpp17_forward_iteratorIT_EE5valueEvE4typeES7_S7_m,
                            __ZNSt3__16vectorIhNS_9allocatorIhEEE21__push_back_slow_pathIhEEvOT_,
                            __ZNSt3__16vectorIhNS_9allocatorIhEEE22__construct_one_at_endIJhEEEvDpOT_,
                            __ZNSt3__16vectorIhNS_9allocatorIhEEE26__swap_out_circular_bufferERNS_14__split_bufferIhRS2_EE,
                            __ZNSt3__16vectorImNS_9allocatorImEEE21__push_back_slow_pathImEEvOT_,
                            __ZNSt3__16vectorImNS_9allocatorImEEE22__construct_one_at_endIJmEEEvDpOT_,
                            __ZNSt3__16vectorImNS_9allocatorImEEE26__swap_out_circular_bufferERNS_14__split_bufferImRS2_EE,
                            __ZNSt3__19allocatorIN4chip18OptionalQRCodeInfoEE9constructIS2_JRKS2_EEEvPT_DpOT0_,
                            __ZNSt3__19allocatorIN4chip18OptionalQRCodeInfoEE9constructIS2_JS2_EEEvPT_DpOT0_,
                            __ZNSt3__19allocatorIN4chip27OptionalQRCodeInfoExtensionEE9constructIS2_JRKS2_EEEvPT_DpOT0_,
                            __ZNSt3__19allocatorIN4chip27OptionalQRCodeInfoExtensionEE9constructIS2_JS2_EEEvPT_DpOT0_,
                            __ZNSt3__19allocatorIN4chip4Mdns11MdnsServiceEE9constructIS3_JRKS3_EEEvPT_DpOT0_,
                            __ZNSt3__19allocatorIN4chip4Mdns9TextEntryEE9constructIS3_JS3_EEEvPT_DpOT0_,
                            __ZNSt3__19allocatorINS_11__tree_nodeINS_12__value_typeIhN4chip18OptionalQRCodeInfoEEEPvEEE9constructINS_4pairIKhS4_EEJRKNS_21piecewise_construct_tENS_5tupleIJRSB_EEENSG_IJEEEEEEvPT_DpOT0_,
                            __ZNSt3__19allocatorINS_11__tree_nodeINS_12__value_typeIhN4chip27OptionalQRCodeInfoExtensionEEEPvEEE9constructINS_4pairIKhS4_EEJRKNS_21piecewise_construct_tENS_5tupleIJRSB_EEENSG_IJEEEEEEvPT_DpOT0_,
                            __ZNSt3__19allocatorIPN4chip4Mdns14GenericContextEE9constructIS4_JRKS4_EEEvPT_DpOT0_,
                            __ZNSt3__19allocatorIhE9constructIhJhEEEvPT_DpOT0_,
                            __ZNSt3__19allocatorImE9constructImJmEEEvPT_DpOT0_,
                            __ZNSt3__1lsINS_11char_traitsIcEEEERNS_13basic_ostreamIcT_EES6_PKc,
                            __ZZN4chip3app22CHIPDeviceCallbacksMgr11GetInstanceEvE8instance,
                            __ZZN4chip8Encoding12LittleEndian6Reader7RawReadIhEEvPT_E9data_size,
                            __ZZN4chip8Encoding12LittleEndian6Reader7RawReadIjEEvPT_E9data_size,
                            __ZZN4chip8Encoding12LittleEndian6Reader7RawReadItEEvPT_E9data_size,
                            __ZZN4chip8Encoding12LittleEndian6Reader7RawReadIyEEvPT_E9data_size,
                            __ZZNK4chip3Ble15BleEndPointPool3GetEmE13sEndPointPool,
                            _chipDie ]
...
